
_main:

;UART_LCD.c,21 :: 		void main() {
;UART_LCD.c,23 :: 		Lcd_Init();                        // Initialize LCD
	CALL        _Lcd_Init+0, 0
;UART_LCD.c,24 :: 		Lcd_Cmd(_LCD_CLEAR);               // Clear display
	MOVLW       1
	MOVWF       FARG_Lcd_Cmd_out_char+0 
	CALL        _Lcd_Cmd+0, 0
;UART_LCD.c,25 :: 		Lcd_Cmd(_LCD_CURSOR_OFF);          // Cursor off
	MOVLW       12
	MOVWF       FARG_Lcd_Cmd_out_char+0 
	CALL        _Lcd_Cmd+0, 0
;UART_LCD.c,26 :: 		Lcd_Out(1, 1, "Hello!");
	MOVLW       1
	MOVWF       FARG_Lcd_Out_row+0 
	MOVLW       1
	MOVWF       FARG_Lcd_Out_column+0 
	MOVLW       ?lstr1_UART_LCD+0
	MOVWF       FARG_Lcd_Out_text+0 
	MOVLW       hi_addr(?lstr1_UART_LCD+0)
	MOVWF       FARG_Lcd_Out_text+1 
	CALL        _Lcd_Out+0, 0
;UART_LCD.c,28 :: 		UART1_Init(9600);               // Initialize UART module at 9600 bps
	BSF         BAUDCON+0, 3, 0
	CLRF        SPBRGH+0 
	MOVLW       207
	MOVWF       SPBRG+0 
	BSF         TXSTA+0, 2, 0
	CALL        _UART1_Init+0, 0
;UART_LCD.c,29 :: 		Delay_ms(100);                  // Wait for UART module to stabilize
	MOVLW       2
	MOVWF       R11, 0
	MOVLW       4
	MOVWF       R12, 0
	MOVLW       186
	MOVWF       R13, 0
L_main0:
	DECFSZ      R13, 1, 1
	BRA         L_main0
	DECFSZ      R12, 1, 1
	BRA         L_main0
	DECFSZ      R11, 1, 1
	BRA         L_main0
	NOP
;UART_LCD.c,31 :: 		while (1){
L_main1:
;UART_LCD.c,33 :: 		if (UART1_Data_Ready()) {     // If data is received,
	CALL        _UART1_Data_Ready+0, 0
	MOVF        R0, 1 
	BTFSC       STATUS+0, 2 
	GOTO        L_main3
;UART_LCD.c,34 :: 		uart_rd = UART1_Read();     // read the received data,
	CALL        _UART1_Read+0, 0
	MOVF        R0, 0 
	MOVWF       _uart_rd+0 
;UART_LCD.c,36 :: 		Lcd_Out(1, 1, "TOF: ");
	MOVLW       1
	MOVWF       FARG_Lcd_Out_row+0 
	MOVLW       1
	MOVWF       FARG_Lcd_Out_column+0 
	MOVLW       ?lstr2_UART_LCD+0
	MOVWF       FARG_Lcd_Out_text+0 
	MOVLW       hi_addr(?lstr2_UART_LCD+0)
	MOVWF       FARG_Lcd_Out_text+1 
	CALL        _Lcd_Out+0, 0
;UART_LCD.c,37 :: 		Lcd_Chr_Cp(uart_rd);
	MOVF        _uart_rd+0, 0 
	MOVWF       FARG_Lcd_Chr_CP_out_char+0 
	CALL        _Lcd_Chr_CP+0, 0
;UART_LCD.c,39 :: 		}
L_main3:
;UART_LCD.c,41 :: 		}
	GOTO        L_main1
;UART_LCD.c,43 :: 		}
L_end_main:
	GOTO        $+0
; end of _main
