
_Velocidad:
	LNK	#4

;ADC_DAC.c,71 :: 		void Velocidad(){
;ADC_DAC.c,76 :: 		Ow_Reset(&PORTA, 1);                        //Onewire reset signal
	PUSH	W10
	PUSH	W11
	PUSH	W12
	MOV	#1, W11
	MOV	#lo_addr(PORTA), W10
	CALL	_Ow_Reset
;ADC_DAC.c,77 :: 		Ow_Write(&PORTA, 1, 0xCC);                  //Issue command SKIP_ROM
	MOV.B	#204, W12
	MOV	#1, W11
	MOV	#lo_addr(PORTA), W10
	CALL	_Ow_Write
;ADC_DAC.c,78 :: 		Ow_Write(&PORTA, 1, 0x44);                  //Issue command CONVERT_T
	MOV.B	#68, W12
	MOV	#1, W11
	MOV	#lo_addr(PORTA), W10
	CALL	_Ow_Write
;ADC_DAC.c,79 :: 		Delay_us(100);
	MOV	#1333, W7
L_Velocidad0:
	DEC	W7
	BRA NZ	L_Velocidad0
	NOP
;ADC_DAC.c,81 :: 		Ow_Reset(&PORTA, 1);
	MOV	#1, W11
	MOV	#lo_addr(PORTA), W10
	CALL	_Ow_Reset
;ADC_DAC.c,82 :: 		Ow_Write(&PORTA, 1, 0xCC);                  //Issue command SKIP_ROM
	MOV.B	#204, W12
	MOV	#1, W11
	MOV	#lo_addr(PORTA), W10
	CALL	_Ow_Write
;ADC_DAC.c,83 :: 		Ow_Write(&PORTA, 1, 0xBE);                  //Issue command READ_SCRATCHPAD
	MOV.B	#190, W12
	MOV	#1, W11
	MOV	#lo_addr(PORTA), W10
	CALL	_Ow_Write
;ADC_DAC.c,84 :: 		Delay_us(100);
	MOV	#1333, W7
L_Velocidad2:
	DEC	W7
	BRA NZ	L_Velocidad2
	NOP
;ADC_DAC.c,86 :: 		Temp =  Ow_Read(&PORTA, 1);
	MOV	#1, W11
	MOV	#lo_addr(PORTA), W10
	CALL	_Ow_Read
; Temp start address is: 10 (W5)
	ZE	W0, W5
;ADC_DAC.c,87 :: 		Temp = (Ow_Read(&PORTA, 1) << 8) + Temp;
	MOV	#1, W11
	MOV	#lo_addr(PORTA), W10
	CALL	_Ow_Read
	ZE	W0, W0
	SL	W0, #8, W0
	ADD	W0, W5, W0
; Temp end address is: 10 (W5)
; Temp start address is: 4 (W2)
	MOV	W0, W2
;ADC_DAC.c,89 :: 		if (Temp & 0x8000) {
	BTSS	W0, #15
	GOTO	L__Velocidad34
;ADC_DAC.c,90 :: 		Temp = 0;                                //Si la temperatura es negativa la establece como cero.
	CLR	W2
; Temp end address is: 4 (W2)
;ADC_DAC.c,91 :: 		}
	GOTO	L_Velocidad4
L__Velocidad34:
;ADC_DAC.c,89 :: 		if (Temp & 0x8000) {
;ADC_DAC.c,91 :: 		}
L_Velocidad4:
;ADC_DAC.c,93 :: 		Rint = Temp >> 4;                           //Extrae la parte entera de la respuesta del sensor
; Temp start address is: 4 (W2)
	LSR	W2, #4, W0
; Rint start address is: 6 (W3)
	MOV	W0, W3
;ADC_DAC.c,94 :: 		Rfrac = ((Temp & 0x000F) * 625) / 10000.;   //Extrae la parte decimal de la respuesta del sensor
	AND	W2, #15, W1
; Temp end address is: 4 (W2)
	MOV	#625, W0
	MUL.UU	W1, W0, W0
	PUSH	W3
	CLR	W1
	CALL	__Long2Float
	MOV	#16384, W2
	MOV	#17948, W3
	CALL	__Div_FP
	POP	W3
	MOV	W0, [W14+0]
	MOV	W1, [W14+2]
;ADC_DAC.c,95 :: 		DSTemp = Rint + Rfrac;
	MOV	W3, W0
	CLR	W1
	CALL	__Long2Float
; Rint end address is: 6 (W3)
	MOV	[W14+0], W2
	MOV	[W14+2], W3
	CALL	__AddSub_FP
	MOV	W0, _DSTemp
	MOV	W1, _DSTemp+2
;ADC_DAC.c,97 :: 		VSnd = 331.45 * sqrt(1+(DsTemp/273));       //Expresa la temperatura en punto flotante
	MOV	#32768, W2
	MOV	#17288, W3
	CALL	__Div_FP
	MOV	#0, W2
	MOV	#16256, W3
	CALL	__AddSub_FP
	MOV.D	W0, W10
	CALL	_sqrt
	MOV	#47514, W2
	MOV	#17317, W3
	CALL	__Mul_FP
	MOV	W0, _VSnd
	MOV	W1, _VSnd+2
;ADC_DAC.c,98 :: 		}
L_end_Velocidad:
	POP	W12
	POP	W11
	POP	W10
	ULNK
	RETURN
; end of _Velocidad

_Pulse:
	LNK	#12

;ADC_DAC.c,101 :: 		void Pulse(){
;ADC_DAC.c,104 :: 		contp = 0;                                               //Limpia la variable del contador de pulsos
	CLR	W0
	MOV	W0, _contp
;ADC_DAC.c,105 :: 		RB14_bit = 0;                                            //Limpia el pin que produce los pulsos de exitacion del transductor
	BCLR	RB14_bit, BitPos(RB14_bit+0)
;ADC_DAC.c,107 :: 		T1CON.TON = 0;                                           //Apaga el TMR1
	BCLR	T1CON, #15
;ADC_DAC.c,108 :: 		IEC0.T1IE = 0;                                           //Desabilita la interrupcion por desborde del TMR1
	BCLR	IEC0, #3
;ADC_DAC.c,110 :: 		TMR2 = 0;                                                //Encera el TMR2
	CLR	TMR2
;ADC_DAC.c,111 :: 		IEC0.T2IE = 1;                                           //Habilita la interrupcion por desborde del TMR2
	BSET	IEC0, #7
;ADC_DAC.c,112 :: 		T2CON.TON = 1;                                           //Enciende el TMR2
	BSET	T2CON, #15
;ADC_DAC.c,114 :: 		i = 0;                                                   //Limpia las variables asociadas al almacenamiento de la señal muestreada
	CLR	W0
	MOV	W0, _i
;ADC_DAC.c,117 :: 		while(bm!=1);                                            //Espera hasta que haya terminado de enviar y recibir todas las muestras
L_Pulse5:
	MOV	#lo_addr(_bm), W0
	MOV.B	[W0], W0
	CP.B	W0, #1
	BRA NZ	L__Pulse37
	GOTO	L_Pulse6
L__Pulse37:
	GOTO	L_Pulse5
L_Pulse6:
;ADC_DAC.c,120 :: 		if (bm==1){
	MOV	#lo_addr(_bm), W0
	MOV.B	[W0], W0
	CP.B	W0, #1
	BRA Z	L__Pulse38
	GOTO	L_Pulse7
L__Pulse38:
;ADC_DAC.c,123 :: 		Mmax = Vector_Max(M, nm, &MIndexMax);
	MOV	#lo_addr(_MIndexMax), W0
	PUSH	W0
	MOV	#350, W0
	PUSH	W0
	MOV	#lo_addr(_M), W0
	PUSH	W0
	CALL	_Vector_Max
	SUB	#6, W15
	MOV	W0, _Mmax
;ADC_DAC.c,124 :: 		Mmin = Vector_Min(M, nm, &MIndexMin);
	MOV	#lo_addr(_MIndexMin), W0
	PUSH	W0
	MOV	#350, W0
	PUSH	W0
	MOV	#lo_addr(_M), W0
	PUSH	W0
	CALL	_Vector_Min
	SUB	#6, W15
	MOV	W0, _Mmin
;ADC_DAC.c,125 :: 		Mmed = Mmax-((Mmax-Mmin)/2);
	MOV	#lo_addr(_Mmax), W1
	SUBR	W0, [W1], W0
	LSR	W0, #1, W2
	MOV	#lo_addr(_Mmax), W1
	MOV	#lo_addr(_Mmed), W0
	SUBR	W2, [W1], [W0]
;ADC_DAC.c,127 :: 		for (k=0;k<nm;k++){
	CLR	W0
	MOV	W0, _k
L_Pulse8:
	MOV	_k, W1
	MOV	#350, W0
	CP	W1, W0
	BRA LTU	L__Pulse39
	GOTO	L_Pulse9
L__Pulse39:
;ADC_DAC.c,130 :: 		value = M[k]-Mmed;
	MOV	_k, W0
	SL	W0, #1, W1
	MOV	#lo_addr(_M), W0
	ADD	W0, W1, W3
	MOV	[W3], W2
	MOV	#lo_addr(_Mmed), W1
	MOV	#lo_addr(_value), W0
	SUB	W2, [W1], [W0]
;ADC_DAC.c,131 :: 		if (M[k]<Mmed){
	MOV	[W3], W1
	MOV	#lo_addr(_Mmed), W0
	CP	W1, [W0]
	BRA LTU	L__Pulse40
	GOTO	L_Pulse11
L__Pulse40:
;ADC_DAC.c,132 :: 		value = (M[k]+((Mmed-M[k])*2))-(Mmed);
	MOV	_k, W0
	SL	W0, #1, W1
	MOV	#lo_addr(_M), W0
	ADD	W0, W1, W1
	MOV	_Mmed, W0
	SUB	W0, [W1], W0
	SL	W0, #1, W0
	ADD	W0, [W1], W2
	MOV	#lo_addr(_Mmed), W1
	MOV	#lo_addr(_value), W0
	SUB	W2, [W1], [W0]
;ADC_DAC.c,133 :: 		}
L_Pulse11:
;ADC_DAC.c,136 :: 		x0 = (float)(value);                                 //Adquisición de una muestra de 10 bits en, x[0].
	MOV	_value, W0
	CLR	W1
	CALL	__Long2Float
	MOV	W0, _x0
	MOV	W1, _x0+2
;ADC_DAC.c,137 :: 		y0 = ((x0+x2)*ca1)+(x1*ca2)-(y1*cb2)-(y2*cb3);       //Implementación de la ecuación en diferencias
	MOV	_x2, W2
	MOV	_x2+2, W3
	CALL	__AddSub_FP
	MOV	#2982, W2
	MOV	#15325, W3
	CALL	__Mul_FP
	MOV	W0, [W14+0]
	MOV	W1, [W14+2]
	MOV	_x1, W0
	MOV	_x1+2, W1
	MOV	#2982, W2
	MOV	#15453, W3
	CALL	__Mul_FP
	MOV	[W14+0], W2
	MOV	[W14+2], W3
	CALL	__AddSub_FP
	MOV	W0, [W14+4]
	MOV	W1, [W14+6]
	MOV	_y1, W0
	MOV	_y1+2, W1
	MOV	#38540, W2
	MOV	#49120, W3
	CALL	__Mul_FP
	MOV	W0, [W14+0]
	MOV	W1, [W14+2]
	MOV	[W14+4], W0
	MOV	[W14+6], W1
	PUSH.D	W2
	MOV	[W14+0], W2
	MOV	[W14+2], W3
	CALL	__Sub_FP
	POP.D	W2
	MOV	W0, [W14+4]
	MOV	W1, [W14+6]
	MOV	_y2, W0
	MOV	_y2+2, W1
	MOV	#5493, W2
	MOV	#16200, W3
	CALL	__Mul_FP
	MOV	W0, [W14+0]
	MOV	W1, [W14+2]
	MOV	[W14+4], W0
	MOV	[W14+6], W1
	PUSH.D	W2
	MOV	[W14+0], W2
	MOV	[W14+2], W3
	CALL	__Sub_FP
	POP.D	W2
	MOV	W0, _y0
	MOV	W1, _y0+2
;ADC_DAC.c,139 :: 		y2 = y1;                                             //Corrimiento de los valores x(n), y y(n).
	MOV	_y1, W2
	MOV	_y1+2, W3
	MOV	W2, _y2
	MOV	W3, _y2+2
;ADC_DAC.c,140 :: 		y1 = y0;
	MOV	W0, _y1
	MOV	W1, _y1+2
;ADC_DAC.c,141 :: 		x2 = x1;
	MOV	_x1, W2
	MOV	_x1+2, W3
	MOV	W2, _x2
	MOV	W3, _x2+2
;ADC_DAC.c,142 :: 		x1 = x0;
	MOV	_x0, W2
	MOV	_x0+2, W3
	MOV	W2, _x1
	MOV	W3, _x1+2
;ADC_DAC.c,144 :: 		YY = (unsigned int)(y0);                             //Reconstrucción de la señal: y en 10 bits.
	CALL	__Float2Longint
	MOV	W0, _YY
;ADC_DAC.c,145 :: 		M[k] = YY;
	MOV	_k, W1
	SL	W1, #1, W2
	MOV	#lo_addr(_M), W1
	ADD	W1, W2, W1
	MOV	W0, [W1]
;ADC_DAC.c,127 :: 		for (k=0;k<nm;k++){
	MOV	#1, W1
	MOV	#lo_addr(_k), W0
	ADD	W1, [W0], [W0]
;ADC_DAC.c,147 :: 		}
	GOTO	L_Pulse8
L_Pulse9:
;ADC_DAC.c,149 :: 		bm = 2;                                                  //Cambia el estado de la bandera bm para dar paso al cálculo del pmax y TOF
	MOV	#lo_addr(_bm), W1
	MOV.B	#2, W0
	MOV.B	W0, [W1]
;ADC_DAC.c,151 :: 		}
L_Pulse7:
;ADC_DAC.c,154 :: 		if (bm==2){
	MOV	#lo_addr(_bm), W0
	MOV.B	[W0], W0
	CP.B	W0, #2
	BRA Z	L__Pulse41
	GOTO	L_Pulse12
L__Pulse41:
;ADC_DAC.c,156 :: 		yy1 = Vector_Max(M, nm, &maxIndex);                         //Encuentra el valor maximo del vector R
	MOV	#lo_addr(_maxIndex), W0
	PUSH	W0
	MOV	#350, W0
	PUSH	W0
	MOV	#lo_addr(_M), W0
	PUSH	W0
	CALL	_Vector_Max
	SUB	#6, W15
	MOV	W0, _yy1
;ADC_DAC.c,157 :: 		i1b = maxIndex;                                              //Asigna el subindice del valor maximo a la variable i1a
	MOV	_maxIndex, W0
	MOV	W0, _i1b
;ADC_DAC.c,158 :: 		i1a = 0;
	CLR	W0
	MOV	W0, _i1a
;ADC_DAC.c,160 :: 		while (M[i1a]<yy1){
L_Pulse13:
	MOV	_i1a, W0
	SL	W0, #1, W1
	MOV	#lo_addr(_M), W0
	ADD	W0, W1, W0
	MOV	[W0], W1
	MOV	#lo_addr(_yy1), W0
	CP	W1, [W0]
	BRA LTU	L__Pulse42
	GOTO	L_Pulse14
L__Pulse42:
;ADC_DAC.c,161 :: 		i1a++;
	MOV	#1, W1
	MOV	#lo_addr(_i1a), W0
	ADD	W1, [W0], [W0]
;ADC_DAC.c,162 :: 		}
	GOTO	L_Pulse13
L_Pulse14:
;ADC_DAC.c,164 :: 		i1 = i1a+((i1b-i1a)/2);
	MOV	_i1b, W1
	MOV	#lo_addr(_i1a), W0
	SUB	W1, [W0], W0
	LSR	W0, #1, W1
	MOV	#lo_addr(_i1a), W0
	ADD	W1, [W0], W1
	MOV	W1, _i1
;ADC_DAC.c,165 :: 		i0 = i1 - dix;
	SUB	W1, #8, W0
	MOV	W0, _i0
;ADC_DAC.c,166 :: 		i2 = i1 + dix;
	ADD	W1, #8, W3
	MOV	W3, _i2
;ADC_DAC.c,168 :: 		yy0 = M[i0];
	SL	W0, #1, W1
	MOV	#lo_addr(_M), W0
	ADD	W0, W1, W0
	MOV	[W0], W2
	MOV	W2, _yy0
;ADC_DAC.c,169 :: 		yy2 = M[i2];
	SL	W3, #1, W1
	MOV	#lo_addr(_M), W0
	ADD	W0, W1, W0
	MOV	[W0], W0
	MOV	W0, [W14+0]
	MOV	W0, _yy2
;ADC_DAC.c,171 :: 		yf0 = (float)(yy0);
	MOV	W2, W0
	ASR	W0, #15, W1
	SETM	W2
	CALL	__Long2Float
	MOV	W0, [W14+8]
	MOV	W1, [W14+10]
	MOV	W0, _yf0
	MOV	W1, _yf0+2
;ADC_DAC.c,172 :: 		yf1 = (float)(yy1);
	MOV	_yy1, W0
	ASR	W0, #15, W1
	SETM	W2
	CALL	__Long2Float
	MOV	W0, [W14+4]
	MOV	W1, [W14+6]
	MOV	W0, _yf1
	MOV	W1, _yf1+2
;ADC_DAC.c,173 :: 		yf2 = (float)(yy2);
	MOV	[W14+0], W0
	ASR	W0, #15, W1
	SETM	W2
	CALL	__Long2Float
	MOV	W0, [W14+0]
	MOV	W1, [W14+2]
	PUSH.D	W0
	MOV	[W14+0], W0
	MOV	[W14+2], W1
	MOV	W0, _yf2
	MOV	W1, _yf2+2
	POP.D	W0
;ADC_DAC.c,175 :: 		nx = (yf0-yf2)/(2.0*(yf0-(2.0*yf1)+yf2));                   //Factor de ajuste determinado por interpolacion parabolica
	MOV	[W14+8], W0
	MOV	[W14+10], W1
	PUSH.D	W2
	MOV	[W14+0], W2
	MOV	[W14+2], W3
	CALL	__Sub_FP
	POP.D	W2
	MOV	[W14+4], W2
	MOV	[W14+6], W3
	MOV	W0, [W14+4]
	MOV	W1, [W14+6]
	MOV	#0, W0
	MOV	#16384, W1
	CALL	__Mul_FP
	MOV	W0, [W14+0]
	MOV	W1, [W14+2]
	MOV	_yf0, W0
	MOV	_yf0+2, W1
	PUSH.D	W2
	MOV	[W14+0], W2
	MOV	[W14+2], W3
	CALL	__Sub_FP
	POP.D	W2
	MOV	_yf2, W2
	MOV	_yf2+2, W3
	CALL	__AddSub_FP
	MOV	#0, W2
	MOV	#16384, W3
	CALL	__Mul_FP
	MOV	W0, [W14+0]
	MOV	W1, [W14+2]
	MOV	[W14+4], W0
	MOV	[W14+6], W1
	PUSH.D	W2
	MOV	[W14+0], W2
	MOV	[W14+2], W3
	CALL	__Div_FP
	POP.D	W2
	MOV	W0, _nx
	MOV	W1, _nx+2
;ADC_DAC.c,176 :: 		dx = nx*dix*tx;
	MOV	#0, W2
	MOV	#16640, W3
	CALL	__Mul_FP
	MOV	#0, W2
	MOV	#16544, W3
	CALL	__Mul_FP
	MOV	W0, _dx
	MOV	W1, _dx+2
;ADC_DAC.c,177 :: 		tmax = i1*tx;
	MOV	_i1, W0
	CLR	W1
	CALL	__Long2Float
	MOV	#0, W2
	MOV	#16544, W3
	CALL	__Mul_FP
	MOV	W0, _tmax
	MOV	W1, _tmax+2
;ADC_DAC.c,179 :: 		T2 = tmax+dx;
	MOV	_dx, W2
	MOV	_dx+2, W3
	CALL	__AddSub_FP
	MOV	W0, _T2
	MOV	W1, _T2+2
;ADC_DAC.c,181 :: 		}
L_Pulse12:
;ADC_DAC.c,183 :: 		}
L_end_Pulse:
	ULNK
	RETURN
; end of _Pulse

_UART1_Interrupt:
	PUSH	52
	PUSH	RCOUNT
	PUSH	W0
	MOV	#2, W0
	REPEAT	#12
	PUSH	[W0++]

;ADC_DAC.c,187 :: 		void UART1_Interrupt() iv IVT_ADDR_U1RXINTERRUPT {
;ADC_DAC.c,189 :: 		U1RXIF_bit = 0;                               //Limpia la bandera de interrupcion de UARTRX
	BCLR	U1RXIF_bit, BitPos(U1RXIF_bit+0)
;ADC_DAC.c,190 :: 		}
L_end_UART1_Interrupt:
	MOV	#26, W0
	REPEAT	#12
	POP	[W0--]
	POP	W0
	POP	RCOUNT
	POP	52
	RETFIE
; end of _UART1_Interrupt

_ADC1Int:
	PUSH	52
	PUSH	RCOUNT
	PUSH	W0
	MOV	#2, W0
	REPEAT	#12
	PUSH	[W0++]

;ADC_DAC.c,193 :: 		void ADC1Int() org IVT_ADDR_ADC1INTERRUPT {
;ADC_DAC.c,194 :: 		if (i<nm){
	MOV	_i, W1
	MOV	#350, W0
	CP	W1, W0
	BRA LTU	L__ADC1Int45
	GOTO	L_ADC1Int15
L__ADC1Int45:
;ADC_DAC.c,195 :: 		M[i] = ADC1BUF0;                           //Almacena el valor actual de la conversion del ADC en el vector M
	MOV	_i, W0
	SL	W0, #1, W1
	MOV	#lo_addr(_M), W0
	ADD	W0, W1, W1
	MOV	ADC1BUF0, WREG
	MOV	W0, [W1]
;ADC_DAC.c,196 :: 		i++;                                       //Aumenta en 1 el subindice del vector de Muestras
	MOV	#1, W1
	MOV	#lo_addr(_i), W0
	ADD	W1, [W0], [W0]
;ADC_DAC.c,197 :: 		}
	GOTO	L_ADC1Int16
L_ADC1Int15:
;ADC_DAC.c,199 :: 		bm = 1;                                    //Cambia el valor de la bandera bm para terminar con el muestreo y dar comienzo al procesamiento de la señal
	MOV	#lo_addr(_bm), W1
	MOV.B	#1, W0
	MOV.B	W0, [W1]
;ADC_DAC.c,200 :: 		T1CON.TON = 0;                             //Apaga el TMR1
	BCLR	T1CON, #15
;ADC_DAC.c,201 :: 		IEC0.T1IE = 0;                             //Desabilita la interrupcion por desborde del TMR1
	BCLR	IEC0, #3
;ADC_DAC.c,202 :: 		}
L_ADC1Int16:
;ADC_DAC.c,204 :: 		AD1IF_bit = 0;                                //Limpia la bandera de interrupcion del ADC
	BCLR	AD1IF_bit, BitPos(AD1IF_bit+0)
;ADC_DAC.c,205 :: 		}
L_end_ADC1Int:
	MOV	#26, W0
	REPEAT	#12
	POP	[W0--]
	POP	W0
	POP	RCOUNT
	POP	52
	RETFIE
; end of _ADC1Int

_Timer1Interrupt:
	PUSH	52
	PUSH	RCOUNT
	PUSH	W0
	MOV	#2, W0
	REPEAT	#12
	PUSH	[W0++]

;ADC_DAC.c,208 :: 		void Timer1Interrupt() iv IVT_ADDR_T1INTERRUPT{
;ADC_DAC.c,209 :: 		RB15_bit = ~RB15_bit;
	BTG	RB15_bit, BitPos(RB15_bit+0)
;ADC_DAC.c,210 :: 		SAMP_bit = 0;                              //Limpia el bit SAMP para iniciar la conversion del ADC
	BCLR	SAMP_bit, BitPos(SAMP_bit+0)
;ADC_DAC.c,211 :: 		T1IF_bit = 0;                                 //Limpia la bandera de interrupcion por desbordamiento del TMR1
	BCLR	T1IF_bit, BitPos(T1IF_bit+0)
;ADC_DAC.c,212 :: 		}
L_end_Timer1Interrupt:
	MOV	#26, W0
	REPEAT	#12
	POP	[W0--]
	POP	W0
	POP	RCOUNT
	POP	52
	RETFIE
; end of _Timer1Interrupt

_Timer2Interrupt:
	PUSH	52
	PUSH	RCOUNT
	PUSH	W0
	MOV	#2, W0
	REPEAT	#12
	PUSH	[W0++]

;ADC_DAC.c,215 :: 		void Timer2Interrupt() iv IVT_ADDR_T2INTERRUPT{
;ADC_DAC.c,216 :: 		if (contp<10){                                //Controla el numero total de pulsos de exitacion del transductor ultrasonico. (
	MOV	_contp, W0
	CP	W0, #10
	BRA LTU	L__Timer2Interrupt48
	GOTO	L_Timer2Interrupt17
L__Timer2Interrupt48:
;ADC_DAC.c,217 :: 		RB14_bit = ~RB14_bit;                    //Conmuta el valor del pin RB14
	BTG	RB14_bit, BitPos(RB14_bit+0)
;ADC_DAC.c,218 :: 		}else {
	GOTO	L_Timer2Interrupt18
L_Timer2Interrupt17:
;ADC_DAC.c,219 :: 		RB14_bit = 0;                            //Pone a cero despues de enviar todos los pulsos de exitacion.
	BCLR	RB14_bit, BitPos(RB14_bit+0)
;ADC_DAC.c,221 :: 		if (contp==110){
	MOV	#110, W1
	MOV	#lo_addr(_contp), W0
	CP	W1, [W0]
	BRA Z	L__Timer2Interrupt49
	GOTO	L_Timer2Interrupt19
L__Timer2Interrupt49:
;ADC_DAC.c,222 :: 		IEC0.T2IE = 0;                       //Desabilita la interrupcion por desborde del TMR2 para no interferir con las interrupciones por desborde de TMR1 y por conversion completa del ADC
	BCLR	IEC0, #7
;ADC_DAC.c,223 :: 		T2CON.TON = 0;                       //Apaga el TMR2
	BCLR	T2CON, #15
;ADC_DAC.c,224 :: 		IEC0.AD1IE = 1;                      //Habilita la interrupcion por conversion completa del ADC
	BSET	IEC0, #13
;ADC_DAC.c,225 :: 		IEC0.T1IE = 1;                       //Habilita la interrupcion por desborde del TMR1 para dar inicio al muestreo del ADC
	BSET	IEC0, #3
;ADC_DAC.c,226 :: 		TMR1 = 0;                            //Encera el TMR1
	CLR	TMR1
;ADC_DAC.c,227 :: 		T1IF_bit = 0;                        //Limpia la bandera de interrupcion por desbordamiento del TMR1
	BCLR	T1IF_bit, BitPos(T1IF_bit+0)
;ADC_DAC.c,228 :: 		T1CON.TON = 1;                       //Enciende el TMR1
	BSET	T1CON, #15
;ADC_DAC.c,229 :: 		bm=0;
	MOV	#lo_addr(_bm), W1
	CLR	W0
	MOV.B	W0, [W1]
;ADC_DAC.c,230 :: 		}
L_Timer2Interrupt19:
;ADC_DAC.c,232 :: 		}
L_Timer2Interrupt18:
;ADC_DAC.c,233 :: 		contp++;                                      //Aumenta el contador en una unidad.
	MOV	#1, W1
	MOV	#lo_addr(_contp), W0
	ADD	W1, [W0], [W0]
;ADC_DAC.c,234 :: 		T2IF_bit = 0;                                 //Limpia la bandera de interrupcion por desbordamiento del TMR2
	BCLR	T2IF_bit, BitPos(T2IF_bit+0)
;ADC_DAC.c,235 :: 		}
L_end_Timer2Interrupt:
	MOV	#26, W0
	REPEAT	#12
	POP	[W0--]
	POP	W0
	POP	RCOUNT
	POP	52
	RETFIE
; end of _Timer2Interrupt

_Configuracion:

;ADC_DAC.c,239 :: 		void Configuracion(){
;ADC_DAC.c,242 :: 		CLKDIVbits.PLLPRE = 0;                      //PLLPRE<4:0> = 0  ->  N1 = 2    8MHz / 2 = 4MHz
	MOV	#lo_addr(CLKDIVbits), W0
	MOV.B	[W0], W1
	MOV.B	#224, W0
	AND.B	W1, W0, W1
	MOV	#lo_addr(CLKDIVbits), W0
	MOV.B	W1, [W0]
;ADC_DAC.c,243 :: 		PLLFBD = 38;                                //PLLDIV<8:0> = 38 ->  M = 40    4MHz * 40 = 160MHz
	MOV	#38, W0
	MOV	WREG, PLLFBD
;ADC_DAC.c,244 :: 		CLKDIVbits.PLLPOST = 0;                     //PLLPOST<1:0> = 0 ->  N2 = 2    160MHz / 2 = 80MHz
	MOV	#lo_addr(CLKDIVbits), W0
	MOV.B	[W0], W1
	MOV.B	#63, W0
	AND.B	W1, W0, W1
	MOV	#lo_addr(CLKDIVbits), W0
	MOV.B	W1, [W0]
;ADC_DAC.c,247 :: 		AD1PCFGL = 0xFFFE;                          //Configura el puerto AN0 como entrada analogica y todas las demas como digitales
	MOV	#65534, W0
	MOV	WREG, AD1PCFGL
;ADC_DAC.c,248 :: 		TRISA0_bit = 1;                             //Set RA0 pin as input
	BSET	TRISA0_bit, BitPos(TRISA0_bit+0)
;ADC_DAC.c,249 :: 		TRISA4_bit = 1;                             //Set RA4 pin as input
	BSET	TRISA4_bit, BitPos(TRISA4_bit+0)
;ADC_DAC.c,250 :: 		TRISB = 0xFF;
	MOV	#255, W0
	MOV	WREG, TRISB
;ADC_DAC.c,253 :: 		AD1CON1.AD12B = 0;                          //Configura el ADC en modo de 10 bits
	BCLR	AD1CON1, #10
;ADC_DAC.c,254 :: 		AD1CON1bits.FORM = 0x00;                    //Formato de la canversion: 00->(0_1023)|01->(-512_511)|02->(0_0.999)|03->(-1_0.999)
	MOV	AD1CON1bits, W1
	MOV	#64767, W0
	AND	W1, W0, W0
	MOV	WREG, AD1CON1bits
;ADC_DAC.c,255 :: 		AD1CON1.SIMSAM = 0;                         //0 -> Muestrea múltiples canales individualmente en secuencia
	BCLR	AD1CON1, #3
;ADC_DAC.c,256 :: 		AD1CON1.ADSIDL = 0;                         //Continua con la operacion del modulo durante el modo desocupado
	BCLR	AD1CON1, #13
;ADC_DAC.c,257 :: 		AD1CON1.ASAM = 1;                           //Muestreo automatico
	BSET	AD1CON1, #2
;ADC_DAC.c,258 :: 		AD1CON1bits.SSRC = 0x00;                    //Conversion manual
	MOV	#lo_addr(AD1CON1bits), W0
	MOV.B	[W0], W1
	MOV.B	#31, W0
	AND.B	W1, W0, W1
	MOV	#lo_addr(AD1CON1bits), W0
	MOV.B	W1, [W0]
;ADC_DAC.c,260 :: 		AD1CON2bits.VCFG = 0;                       //Selecciona AVDD y AVSS como fuentes de voltaje de referencia
	MOV	AD1CON2bits, W1
	MOV	#8191, W0
	AND	W1, W0, W0
	MOV	WREG, AD1CON2bits
;ADC_DAC.c,261 :: 		AD1CON2bits.CHPS = 0;                       //Selecciona unicamente el canal CH0
	MOV	AD1CON2bits, W1
	MOV	#64767, W0
	AND	W1, W0, W0
	MOV	WREG, AD1CON2bits
;ADC_DAC.c,262 :: 		AD1CON2.CSCNA = 0;                          //No escanea las entradas de CH0 durante la Muestra A
	BCLR	AD1CON2, #10
;ADC_DAC.c,263 :: 		AD1CON2bits.SMPI = 0x00;                    //Numero de secuencias de muestreo/conversion por interrupcion (N+1)
	MOV	#lo_addr(AD1CON2bits), W0
	MOV.B	[W0], W1
	MOV.B	#195, W0
	AND.B	W1, W0, W1
	MOV	#lo_addr(AD1CON2bits), W0
	MOV.B	W1, [W0]
;ADC_DAC.c,264 :: 		AD1CON2.BUFM = 0;                           //Bit de selección del modo de relleno del búfer, 0 -> Siempre comienza a llenar el buffer desde el principio
	BCLR	AD1CON2, #1
;ADC_DAC.c,265 :: 		AD1CON2.ALTS = 0x00;                        //Utiliza siempre la selección de entrada de canal para la muestra A
	BCLR	AD1CON2, #0
;ADC_DAC.c,267 :: 		AD1CON3.ADRC = 0;                           //Selecciona el reloj de conversion del ADC derivado del reloj del sistema
	BCLR	AD1CON3, #15
;ADC_DAC.c,268 :: 		AD1CON3bits.ADCS = 0x02;                    //Configura el periodo del reloj del ADC fijando el valor de los bits ADCS segun la formula: TAD = TCY*(ADCS+1) = 75ns  -> ADCS = 2
	MOV.B	#2, W0
	MOV.B	W0, W1
	MOV	#lo_addr(AD1CON3bits), W0
	XOR.B	W1, [W0], W1
	MOV.B	#255, W0
	AND.B	W1, W0, W1
	MOV	#lo_addr(AD1CON3bits), W0
	XOR.B	W1, [W0], W1
	MOV	#lo_addr(AD1CON3bits), W0
	MOV.B	W1, [W0]
;ADC_DAC.c,269 :: 		AD1CON3bits.SAMC = 0x02;                    //Auto Sample Time bits, 2 -> 2*TAD (minimo periodo de muestreo para 10 bits)
	MOV	#512, W0
	MOV	W0, W1
	MOV	#lo_addr(AD1CON3bits), W0
	XOR	W1, [W0], W1
	MOV	#7936, W0
	AND	W1, W0, W1
	MOV	#lo_addr(AD1CON3bits), W0
	XOR	W1, [W0], W1
	MOV	W1, AD1CON3bits
;ADC_DAC.c,271 :: 		AD1CHS0 = 0;                                //ADC1 INPUT CHANNEL 0 SELECT REGISTER
	CLR	AD1CHS0
;ADC_DAC.c,272 :: 		AD1CHS123 = 0;                              //AD1CHS123: ADC1 INPUT CHANNEL 1, 2, 3 SELECT REGISTER
	CLR	AD1CHS123
;ADC_DAC.c,274 :: 		AD1CSSL = 0x00;                             //Se salta todos los puertos ANx para los escaneos de entrada
	CLR	AD1CSSL
;ADC_DAC.c,276 :: 		AD1CON1.ADON = 1;                           //Enciende el modulo ADC
	BSET	AD1CON1, #15
;ADC_DAC.c,279 :: 		T1CON = 0x8000;                             //Habilita el TMR1, selecciona el reloj interno, desabilita el modo Gated Timer, selecciona el preescalador 1:1,
	MOV	#32768, W0
	MOV	WREG, T1CON
;ADC_DAC.c,280 :: 		IEC0.T1IE = 0;                              //Inicializa el programa con la interrupcion por desborde de TMR1 desabilitada para no interferir con la lectura del sensor de temperatura
	BCLR	IEC0, #3
;ADC_DAC.c,281 :: 		T1IF_bit = 0;                               //Limpia la bandera de interrupcion
	BCLR	T1IF_bit, BitPos(T1IF_bit+0)
;ADC_DAC.c,282 :: 		PR1 = 200;                                  //Genera una interrupcion cada 5us (Fs=200KHz)
	MOV	#200, W0
	MOV	WREG, PR1
;ADC_DAC.c,285 :: 		T2CON = 0x8000;                             //Habilita el TMR2, selecciona el reloj interno, desabilita el modo Gated Timer, selecciona el preescalador 1:1,
	MOV	#32768, W0
	MOV	WREG, T2CON
;ADC_DAC.c,286 :: 		IEC0.T2IE = 0;                              //Inicializa el programa con la interrupcion por desborde de TMR2 desabilitada para no interferir con la lectura del sensor de temperatura
	BCLR	IEC0, #7
;ADC_DAC.c,287 :: 		T2IF_bit = 0;                               //Limpia la bandera de interrupcion
	BCLR	T2IF_bit, BitPos(T2IF_bit+0)
;ADC_DAC.c,288 :: 		PR2 = 500;                                  //Genera una interrupcion cada 12.5us
	MOV	#500, W0
	MOV	WREG, PR2
;ADC_DAC.c,291 :: 		RPINR18bits.U1RXR = 0x0C;                   //Asisgna Rx a RP12
	MOV.B	#12, W0
	MOV.B	W0, W1
	MOV	#lo_addr(RPINR18bits), W0
	XOR.B	W1, [W0], W1
	AND.B	W1, #31, W1
	MOV	#lo_addr(RPINR18bits), W0
	XOR.B	W1, [W0], W1
	MOV	#lo_addr(RPINR18bits), W0
	MOV.B	W1, [W0]
;ADC_DAC.c,292 :: 		RPOR6bits.RP13R = 0x03;                     //Asigna Tx a RP13
	MOV	#768, W0
	MOV	W0, W1
	MOV	#lo_addr(RPOR6bits), W0
	XOR	W1, [W0], W1
	MOV	#7936, W0
	AND	W1, W0, W1
	MOV	#lo_addr(RPOR6bits), W0
	XOR	W1, [W0], W1
	MOV	W1, RPOR6bits
;ADC_DAC.c,293 :: 		IEC0.U1RXIE = 1;                            //Habilita la interrupcion por recepcion de dato po UART
	BSET	IEC0, #11
;ADC_DAC.c,296 :: 		IPC3bits.AD1IP = 0x06;                      //Nivel de prioridad de interrupcion del ADC
	MOV.B	#96, W0
	MOV.B	W0, W1
	MOV	#lo_addr(IPC3bits), W0
	XOR.B	W1, [W0], W1
	MOV.B	#112, W0
	AND.B	W1, W0, W1
	MOV	#lo_addr(IPC3bits), W0
	XOR.B	W1, [W0], W1
	MOV	#lo_addr(IPC3bits), W0
	MOV.B	W1, [W0]
;ADC_DAC.c,297 :: 		IPC0bits.T1IP = 0x07;                       //Nivel de prioridad de la interrupcion por desbordamiento del TMR1
	MOV	IPC0bits, W1
	MOV	#28672, W0
	IOR	W1, W0, W0
	MOV	WREG, IPC0bits
;ADC_DAC.c,298 :: 		IPC1bits.T2IP = 0x05;                       //Nivel de prioridad de la interrupcion por desbordamiento del TMR2
	MOV	#20480, W0
	MOV	W0, W1
	MOV	#lo_addr(IPC1bits), W0
	XOR	W1, [W0], W1
	MOV	#28672, W0
	AND	W1, W0, W1
	MOV	#lo_addr(IPC1bits), W0
	XOR	W1, [W0], W1
	MOV	W1, IPC1bits
;ADC_DAC.c,299 :: 		IPC2bits.U1RXIP = 0x04;                     //Nivel de prioridad de la interrupcion UARTRX
	MOV	#16384, W0
	MOV	W0, W1
	MOV	#lo_addr(IPC2bits), W0
	XOR	W1, [W0], W1
	MOV	#28672, W0
	AND	W1, W0, W1
	MOV	#lo_addr(IPC2bits), W0
	XOR	W1, [W0], W1
	MOV	W1, IPC2bits
;ADC_DAC.c,303 :: 		}
L_end_Configuracion:
	RETURN
; end of _Configuracion

_main:
	MOV	#2048, W15
	MOV	#6142, W0
	MOV	WREG, 32
	MOV	#1, W0
	MOV	WREG, 52
	MOV	#4, W0
	IOR	68

;ADC_DAC.c,307 :: 		void main() {
;ADC_DAC.c,309 :: 		Configuracion();
	PUSH	W10
	PUSH	W11
	CALL	_Configuracion
;ADC_DAC.c,311 :: 		UART1_Init(9600);               // Initialize UART module at 9600 bps
	MOV	#9600, W10
	MOV	#0, W11
	CALL	_UART1_Init
;ADC_DAC.c,312 :: 		Delay_ms(100);                  // Wait for UART module to stabilize
	MOV	#21, W8
	MOV	#22619, W7
L_main20:
	DEC	W7
	BRA NZ	L_main20
	DEC	W8
	BRA NZ	L_main20
;ADC_DAC.c,315 :: 		TpId = PORTB&0xFF;
	MOV	#255, W1
	MOV	#lo_addr(PORTB), W0
	AND	W1, [W0], W2
	MOV	#lo_addr(_TpId), W0
	MOV.B	W2, [W0]
;ADC_DAC.c,316 :: 		TP = TpId>>4;
	SE	W2, W0
	ASR	W0, #4, W1
	MOV	#lo_addr(_TP), W0
	MOV.B	W1, [W0]
;ADC_DAC.c,317 :: 		Id = TPId&0xF;
	MOV	#lo_addr(_Id), W0
	AND.B	W2, #15, [W0]
;ADC_DAC.c,319 :: 		while(1){
L_main22:
;ADC_DAC.c,321 :: 		TOF = 0.0;
	CLR	W0
	CLR	W1
	MOV	W0, _TOF
	MOV	W1, _TOF+2
;ADC_DAC.c,322 :: 		Dst = 0.0;
	CLR	W0
	CLR	W1
	MOV	W0, _Dst
	MOV	W1, _Dst+2
;ADC_DAC.c,323 :: 		T2sum = 0.0;
	CLR	W0
	CLR	W1
	MOV	W0, _T2sum
	MOV	W1, _T2sum+2
;ADC_DAC.c,324 :: 		T2prom = 0.0;
	CLR	W0
	CLR	W1
	MOV	W0, _T2prom
	MOV	W1, _T2prom+2
;ADC_DAC.c,325 :: 		conts = 0;
	MOV	#lo_addr(_conts), W1
	CLR	W0
	MOV.B	W0, [W1]
;ADC_DAC.c,327 :: 		while (conts<5){
L_main24:
	MOV	#lo_addr(_conts), W0
	MOV.B	[W0], W0
	CP.B	W0, #5
	BRA LT	L__main52
	GOTO	L_main25
L__main52:
;ADC_DAC.c,328 :: 		Pulse();
	CALL	_Pulse
;ADC_DAC.c,329 :: 		T2sum = T2sum + T2;
	MOV	_T2sum, W2
	MOV	_T2sum+2, W3
	MOV	_T2, W0
	MOV	_T2+2, W1
	CALL	__AddSub_FP
	MOV	W0, _T2sum
	MOV	W1, _T2sum+2
;ADC_DAC.c,330 :: 		conts++;
	MOV.B	#1, W1
	MOV	#lo_addr(_conts), W0
	ADD.B	W1, [W0], [W0]
;ADC_DAC.c,331 :: 		}
	GOTO	L_main24
L_main25:
;ADC_DAC.c,333 :: 		T2prom=(T2sum/5);
	MOV	#0, W2
	MOV	#16544, W3
	MOV	_T2sum, W0
	MOV	_T2sum+2, W1
	CALL	__Div_FP
	MOV	W0, _T2prom
	MOV	W1, _T2prom+2
;ADC_DAC.c,340 :: 		TT2 = T2Prom * 100.0;
	MOV	#0, W2
	MOV	#17096, W3
	CALL	__Mul_FP
	CALL	__Float2Longword
	MOV	W0, _TT2
	MOV	W1, _TT2+2
;ADC_DAC.c,342 :: 		chT2 = (unsigned char *) & TT2;
	MOV	#lo_addr(_TT2), W0
	MOV	W0, _chT2
;ADC_DAC.c,344 :: 		for (l=0;l<4;l++){
	MOV	#lo_addr(_l), W1
	CLR	W0
	MOV.B	W0, [W1]
L_main26:
	MOV	#lo_addr(_l), W0
	MOV.B	[W0], W0
	CP.B	W0, #4
	BRA LT	L__main53
	GOTO	L_main27
L__main53:
;ADC_DAC.c,345 :: 		trama[l]=(*chT2++);
	MOV	#lo_addr(_l), W0
	SE	[W0], W1
	MOV	#lo_addr(_trama), W0
	ADD	W0, W1, W1
	MOV	_chT2, W0
	MOV.B	[W0], [W1]
	MOV	#1, W1
	MOV	#lo_addr(_chT2), W0
	ADD	W1, [W0], [W0]
;ADC_DAC.c,344 :: 		for (l=0;l<4;l++){
	MOV.B	#1, W1
	MOV	#lo_addr(_l), W0
	ADD.B	W1, [W0], [W0]
;ADC_DAC.c,346 :: 		}
	GOTO	L_main26
L_main27:
;ADC_DAC.c,348 :: 		UART1_Write(Tp);
	MOV	#lo_addr(_TP), W0
	SE	[W0], W10
	CALL	_UART1_Write
;ADC_DAC.c,349 :: 		UART1_Write(Id);
	MOV	#lo_addr(_Id), W0
	SE	[W0], W10
	CALL	_UART1_Write
;ADC_DAC.c,351 :: 		for (l=0;l<4;l++){
	MOV	#lo_addr(_l), W1
	CLR	W0
	MOV.B	W0, [W1]
L_main29:
	MOV	#lo_addr(_l), W0
	MOV.B	[W0], W0
	CP.B	W0, #4
	BRA LT	L__main54
	GOTO	L_main30
L__main54:
;ADC_DAC.c,352 :: 		UART1_Write(trama[l]);
	MOV	#lo_addr(_l), W0
	SE	[W0], W1
	MOV	#lo_addr(_trama), W0
	ADD	W0, W1, W0
	ZE	[W0], W10
	CALL	_UART1_Write
;ADC_DAC.c,351 :: 		for (l=0;l<4;l++){
	MOV.B	#1, W1
	MOV	#lo_addr(_l), W0
	ADD.B	W1, [W0], [W0]
;ADC_DAC.c,353 :: 		}
	GOTO	L_main29
L_main30:
;ADC_DAC.c,357 :: 		Delay_ms(10);
	MOV	#3, W8
	MOV	#2261, W7
L_main32:
	DEC	W7
	BRA NZ	L_main32
	DEC	W8
	BRA NZ	L_main32
;ADC_DAC.c,359 :: 		}
	GOTO	L_main22
;ADC_DAC.c,361 :: 		}
L_end_main:
	POP	W11
	POP	W10
L__main_end_loop:
	BRA	L__main_end_loop
; end of _main
