
_Velocidad:
	LNK	#4

;ADC_DAC.c,91 :: 		void Velocidad(){
;ADC_DAC.c,96 :: 		Ow_Reset(&PORTA, 0);                          //Onewire reset signal
	PUSH	W10
	PUSH	W11
	PUSH	W12
	CLR	W11
	MOV	#lo_addr(PORTA), W10
	CALL	_Ow_Reset
;ADC_DAC.c,97 :: 		Ow_Write(&PORTA, 0, 0xCC);                    //Issue command SKIP_ROM
	MOV.B	#204, W12
	CLR	W11
	MOV	#lo_addr(PORTA), W10
	CALL	_Ow_Write
;ADC_DAC.c,98 :: 		Ow_Write(&PORTA, 0, 0x44);                    //Issue command CONVERT_T
	MOV.B	#68, W12
	CLR	W11
	MOV	#lo_addr(PORTA), W10
	CALL	_Ow_Write
;ADC_DAC.c,99 :: 		Delay_us(100);
	MOV	#1333, W7
L_Velocidad0:
	DEC	W7
	BRA NZ	L_Velocidad0
	NOP
;ADC_DAC.c,101 :: 		Ow_Reset(&PORTA, 0);
	CLR	W11
	MOV	#lo_addr(PORTA), W10
	CALL	_Ow_Reset
;ADC_DAC.c,102 :: 		Ow_Write(&PORTA, 0, 0xCC);                    //Issue command SKIP_ROM
	MOV.B	#204, W12
	CLR	W11
	MOV	#lo_addr(PORTA), W10
	CALL	_Ow_Write
;ADC_DAC.c,103 :: 		Ow_Write(&PORTA, 0, 0xBE);                    //Issue command READ_SCRATCHPAD
	MOV.B	#190, W12
	CLR	W11
	MOV	#lo_addr(PORTA), W10
	CALL	_Ow_Write
;ADC_DAC.c,104 :: 		Delay_us(100);
	MOV	#1333, W7
L_Velocidad2:
	DEC	W7
	BRA NZ	L_Velocidad2
	NOP
;ADC_DAC.c,106 :: 		Temp =  Ow_Read(&PORTA, 0);
	CLR	W11
	MOV	#lo_addr(PORTA), W10
	CALL	_Ow_Read
; Temp start address is: 10 (W5)
	ZE	W0, W5
;ADC_DAC.c,107 :: 		Temp = (Ow_Read(&PORTA, 0) << 8) + Temp;
	CLR	W11
	MOV	#lo_addr(PORTA), W10
	CALL	_Ow_Read
	ZE	W0, W0
	SL	W0, #8, W0
	ADD	W0, W5, W0
; Temp end address is: 10 (W5)
; Temp start address is: 4 (W2)
	MOV	W0, W2
;ADC_DAC.c,109 :: 		if (Temp & 0x8000) {
	BTSS	W0, #15
	GOTO	L__Velocidad87
;ADC_DAC.c,110 :: 		Temp = 0;                                  //Si la temperatura es negativa la establece como cero.
	CLR	W2
; Temp end address is: 4 (W2)
;ADC_DAC.c,111 :: 		}
	GOTO	L_Velocidad4
L__Velocidad87:
;ADC_DAC.c,109 :: 		if (Temp & 0x8000) {
;ADC_DAC.c,111 :: 		}
L_Velocidad4:
;ADC_DAC.c,113 :: 		Rint = Temp >> 4;                             //Extrae la parte entera de la respuesta del sensor
; Temp start address is: 4 (W2)
	LSR	W2, #4, W0
; Rint start address is: 6 (W3)
	MOV	W0, W3
;ADC_DAC.c,114 :: 		Rfrac = ((Temp & 0x000F) * 625) / 10000.;     //Extrae la parte decimal de la respuesta del sensor
	AND	W2, #15, W1
; Temp end address is: 4 (W2)
	MOV	#625, W0
	MUL.UU	W1, W0, W0
	PUSH	W3
	CLR	W1
	CALL	__Long2Float
	MOV	#16384, W2
	MOV	#17948, W3
	CALL	__Div_FP
	POP	W3
	MOV	W0, [W14+0]
	MOV	W1, [W14+2]
;ADC_DAC.c,115 :: 		DSTemp = Rint + Rfrac;                        //Expresa la temperatura en punto flotante
	MOV	W3, W0
	CLR	W1
	CALL	__Long2Float
; Rint end address is: 6 (W3)
	MOV	[W14+0], W2
	MOV	[W14+2], W3
	CALL	__AddSub_FP
	MOV	W0, _DSTemp
	MOV	W1, _DSTemp+2
;ADC_DAC.c,117 :: 		VSnd = 331.45 * sqrt(1+(DsTemp/273));
	MOV	#32768, W2
	MOV	#17288, W3
	CALL	__Div_FP
	MOV	#0, W2
	MOV	#16256, W3
	CALL	__AddSub_FP
	MOV.D	W0, W10
	CALL	_sqrt
	MOV	#47514, W2
	MOV	#17317, W3
	CALL	__Mul_FP
	MOV	W0, _VSnd
	MOV	W1, _VSnd+2
;ADC_DAC.c,118 :: 		}
L_end_Velocidad:
	POP	W12
	POP	W11
	POP	W10
	ULNK
	RETURN
; end of _Velocidad

_Pulse:
	LNK	#12

;ADC_DAC.c,121 :: 		void Pulse(){
;ADC_DAC.c,124 :: 		contp = 0;                                               //Limpia la variable del contador de pulsos
	CLR	W0
	MOV	W0, _contp
;ADC_DAC.c,125 :: 		RB0_bit = 0;                                            //Limpia el pin que produce los pulsos de exitacion del transductor
	BCLR	RB0_bit, BitPos(RB0_bit+0)
;ADC_DAC.c,127 :: 		T1CON.TON = 0;                                           //Apaga el TMR1
	BCLR	T1CON, #15
;ADC_DAC.c,128 :: 		IEC0.T1IE = 0;                                           //Desabilita la interrupcion por desborde del TMR1
	BCLR	IEC0, #3
;ADC_DAC.c,130 :: 		TMR2 = 0;                                                //Encera el TMR2
	CLR	TMR2
;ADC_DAC.c,131 :: 		IEC0.T2IE = 1;                                           //Habilita la interrupcion por desborde del TMR2
	BSET	IEC0, #7
;ADC_DAC.c,132 :: 		T2CON.TON = 1;                                           //Enciende el TMR2
	BSET	T2CON, #15
;ADC_DAC.c,134 :: 		i = 0;                                                   //Limpia las variables asociadas al almacenamiento de la señal muestreada
	CLR	W0
	MOV	W0, _i
;ADC_DAC.c,137 :: 		while(bm!=1);                                            //Espera hasta que haya terminado de enviar y recibir todas las muestras
L_Pulse5:
	MOV	#lo_addr(_bm), W0
	MOV.B	[W0], W0
	CP.B	W0, #1
	BRA NZ	L__Pulse102
	GOTO	L_Pulse6
L__Pulse102:
	GOTO	L_Pulse5
L_Pulse6:
;ADC_DAC.c,140 :: 		if (bm==1){
	MOV	#lo_addr(_bm), W0
	MOV.B	[W0], W0
	CP.B	W0, #1
	BRA Z	L__Pulse103
	GOTO	L_Pulse7
L__Pulse103:
;ADC_DAC.c,143 :: 		Mmax = Vector_Max(M, nm, &MIndexMax);
	MOV	#lo_addr(_MIndexMax), W0
	PUSH	W0
	MOV	#350, W0
	PUSH	W0
	MOV	#lo_addr(_M), W0
	PUSH	W0
	CALL	_Vector_Max
	SUB	#6, W15
	MOV	W0, _Mmax
;ADC_DAC.c,144 :: 		Mmin = Vector_Min(M, nm, &MIndexMin);
	MOV	#lo_addr(_MIndexMin), W0
	PUSH	W0
	MOV	#350, W0
	PUSH	W0
	MOV	#lo_addr(_M), W0
	PUSH	W0
	CALL	_Vector_Min
	SUB	#6, W15
	MOV	W0, _Mmin
;ADC_DAC.c,145 :: 		Mmed = Mmax-((Mmax-Mmin)/2);
	MOV	#lo_addr(_Mmax), W1
	SUBR	W0, [W1], W0
	LSR	W0, #1, W2
	MOV	#lo_addr(_Mmax), W1
	MOV	#lo_addr(_Mmed), W0
	SUBR	W2, [W1], [W0]
;ADC_DAC.c,147 :: 		for (k=0;k<nm;k++){
	CLR	W0
	MOV	W0, _k
L_Pulse8:
	MOV	_k, W1
	MOV	#350, W0
	CP	W1, W0
	BRA LTU	L__Pulse104
	GOTO	L_Pulse9
L__Pulse104:
;ADC_DAC.c,150 :: 		value = M[k]-Mmed;
	MOV	_k, W0
	SL	W0, #1, W1
	MOV	#lo_addr(_M), W0
	ADD	W0, W1, W3
	MOV	[W3], W2
	MOV	#lo_addr(_Mmed), W1
	MOV	#lo_addr(_value), W0
	SUB	W2, [W1], [W0]
;ADC_DAC.c,151 :: 		if (M[k]<Mmed){
	MOV	[W3], W1
	MOV	#lo_addr(_Mmed), W0
	CP	W1, [W0]
	BRA LTU	L__Pulse105
	GOTO	L_Pulse11
L__Pulse105:
;ADC_DAC.c,152 :: 		value = (M[k]+((Mmed-M[k])*2))-(Mmed);
	MOV	_k, W0
	SL	W0, #1, W1
	MOV	#lo_addr(_M), W0
	ADD	W0, W1, W1
	MOV	_Mmed, W0
	SUB	W0, [W1], W0
	SL	W0, #1, W0
	ADD	W0, [W1], W2
	MOV	#lo_addr(_Mmed), W1
	MOV	#lo_addr(_value), W0
	SUB	W2, [W1], [W0]
;ADC_DAC.c,153 :: 		}
L_Pulse11:
;ADC_DAC.c,156 :: 		x0 = (float)(value);                                 //Adquisición de una muestra de 10 bits en, x[0].
	MOV	_value, W0
	CLR	W1
	CALL	__Long2Float
	MOV	W0, _x0
	MOV	W1, _x0+2
;ADC_DAC.c,157 :: 		y0 = ((x0+x2)*ca1)+(x1*ca2)-(y1*cb2)-(y2*cb3);       //Implementación de la ecuación en diferencias
	MOV	_x2, W2
	MOV	_x2+2, W3
	CALL	__AddSub_FP
	MOV	#58496, W2
	MOV	#15250, W3
	CALL	__Mul_FP
	MOV	W0, [W14+0]
	MOV	W1, [W14+2]
	MOV	_x1, W0
	MOV	_x1+2, W1
	MOV	#58496, W2
	MOV	#15378, W3
	CALL	__Mul_FP
	MOV	[W14+0], W2
	MOV	[W14+2], W3
	CALL	__AddSub_FP
	MOV	W0, [W14+4]
	MOV	W1, [W14+6]
	MOV	_y1, W0
	MOV	_y1+2, W1
	MOV	#41926, W2
	MOV	#49126, W3
	CALL	__Mul_FP
	MOV	W0, [W14+0]
	MOV	W1, [W14+2]
	MOV	[W14+4], W0
	MOV	[W14+6], W1
	PUSH.D	W2
	MOV	[W14+0], W2
	MOV	[W14+2], W3
	CALL	__Sub_FP
	POP.D	W2
	MOV	W0, [W14+4]
	MOV	W1, [W14+6]
	MOV	_y2, W0
	MOV	_y2+2, W1
	MOV	#57007, W2
	MOV	#16209, W3
	CALL	__Mul_FP
	MOV	W0, [W14+0]
	MOV	W1, [W14+2]
	MOV	[W14+4], W0
	MOV	[W14+6], W1
	PUSH.D	W2
	MOV	[W14+0], W2
	MOV	[W14+2], W3
	CALL	__Sub_FP
	POP.D	W2
	MOV	W0, _y0
	MOV	W1, _y0+2
;ADC_DAC.c,159 :: 		y2 = y1;                                             //Corrimiento de los valores x(n), y y(n).
	MOV	_y1, W2
	MOV	_y1+2, W3
	MOV	W2, _y2
	MOV	W3, _y2+2
;ADC_DAC.c,160 :: 		y1 = y0;
	MOV	W0, _y1
	MOV	W1, _y1+2
;ADC_DAC.c,161 :: 		x2 = x1;
	MOV	_x1, W2
	MOV	_x1+2, W3
	MOV	W2, _x2
	MOV	W3, _x2+2
;ADC_DAC.c,162 :: 		x1 = x0;
	MOV	_x0, W2
	MOV	_x0+2, W3
	MOV	W2, _x1
	MOV	W3, _x1+2
;ADC_DAC.c,164 :: 		YY = (unsigned int)(y0);                             //Reconstrucción de la señal: y en 10 bits.
	CALL	__Float2Longint
	MOV	W0, _YY
;ADC_DAC.c,165 :: 		M[k] = YY;
	MOV	_k, W1
	SL	W1, #1, W2
	MOV	#lo_addr(_M), W1
	ADD	W1, W2, W1
	MOV	W0, [W1]
;ADC_DAC.c,147 :: 		for (k=0;k<nm;k++){
	MOV	#1, W1
	MOV	#lo_addr(_k), W0
	ADD	W1, [W0], [W0]
;ADC_DAC.c,167 :: 		}
	GOTO	L_Pulse8
L_Pulse9:
;ADC_DAC.c,169 :: 		bm = 2;                                                  //Cambia el estado de la bandera bm para dar paso al cálculo del pmax y TOF
	MOV	#lo_addr(_bm), W1
	MOV.B	#2, W0
	MOV.B	W0, [W1]
;ADC_DAC.c,171 :: 		}
L_Pulse7:
;ADC_DAC.c,174 :: 		if (bm==2){
	MOV	#lo_addr(_bm), W0
	MOV.B	[W0], W0
	CP.B	W0, #2
	BRA Z	L__Pulse106
	GOTO	L_Pulse12
L__Pulse106:
;ADC_DAC.c,176 :: 		yy1 = Vector_Max(M, nm, &maxIndex);                         //Encuentra el valor maximo del vector R
	MOV	#lo_addr(_maxIndex), W0
	PUSH	W0
	MOV	#350, W0
	PUSH	W0
	MOV	#lo_addr(_M), W0
	PUSH	W0
	CALL	_Vector_Max
	SUB	#6, W15
	MOV	W0, _yy1
;ADC_DAC.c,177 :: 		i1b = maxIndex;                                              //Asigna el subindice del valor maximo a la variable i1a
	MOV	_maxIndex, W0
	MOV	W0, _i1b
;ADC_DAC.c,178 :: 		i1a = 0;
	CLR	W0
	MOV	W0, _i1a
;ADC_DAC.c,180 :: 		while (M[i1a]<yy1){
L_Pulse13:
	MOV	_i1a, W0
	SL	W0, #1, W1
	MOV	#lo_addr(_M), W0
	ADD	W0, W1, W0
	MOV	[W0], W1
	MOV	#lo_addr(_yy1), W0
	CP	W1, [W0]
	BRA LTU	L__Pulse107
	GOTO	L_Pulse14
L__Pulse107:
;ADC_DAC.c,181 :: 		i1a++;
	MOV	#1, W1
	MOV	#lo_addr(_i1a), W0
	ADD	W1, [W0], [W0]
;ADC_DAC.c,182 :: 		}
	GOTO	L_Pulse13
L_Pulse14:
;ADC_DAC.c,184 :: 		i1 = i1a+((i1b-i1a)/2);
	MOV	_i1b, W1
	MOV	#lo_addr(_i1a), W0
	SUB	W1, [W0], W0
	LSR	W0, #1, W1
	MOV	#lo_addr(_i1a), W0
	ADD	W1, [W0], W1
	MOV	W1, _i1
;ADC_DAC.c,185 :: 		i0 = i1 - dix;
	SUB	W1, #16, W0
	MOV	W0, _i0
;ADC_DAC.c,186 :: 		i2 = i1 + dix;
	ADD	W1, #16, W3
	MOV	W3, _i2
;ADC_DAC.c,188 :: 		yy0 = M[i0];
	SL	W0, #1, W1
	MOV	#lo_addr(_M), W0
	ADD	W0, W1, W0
	MOV	[W0], W2
	MOV	W2, _yy0
;ADC_DAC.c,189 :: 		yy2 = M[i2];
	SL	W3, #1, W1
	MOV	#lo_addr(_M), W0
	ADD	W0, W1, W0
	MOV	[W0], W0
	MOV	W0, [W14+0]
	MOV	W0, _yy2
;ADC_DAC.c,191 :: 		yf0 = (float)(yy0);
	MOV	W2, W0
	ASR	W0, #15, W1
	SETM	W2
	CALL	__Long2Float
	MOV	W0, [W14+8]
	MOV	W1, [W14+10]
	MOV	W0, _yf0
	MOV	W1, _yf0+2
;ADC_DAC.c,192 :: 		yf1 = (float)(yy1);
	MOV	_yy1, W0
	ASR	W0, #15, W1
	SETM	W2
	CALL	__Long2Float
	MOV	W0, [W14+4]
	MOV	W1, [W14+6]
	MOV	W0, _yf1
	MOV	W1, _yf1+2
;ADC_DAC.c,193 :: 		yf2 = (float)(yy2);
	MOV	[W14+0], W0
	ASR	W0, #15, W1
	SETM	W2
	CALL	__Long2Float
	MOV	W0, [W14+0]
	MOV	W1, [W14+2]
	PUSH.D	W0
	MOV	[W14+0], W0
	MOV	[W14+2], W1
	MOV	W0, _yf2
	MOV	W1, _yf2+2
	POP.D	W0
;ADC_DAC.c,195 :: 		nx = (yf0-yf2)/(2.0*(yf0-(2.0*yf1)+yf2));                   //Factor de ajuste determinado por interpolacion parabolica
	MOV	[W14+8], W0
	MOV	[W14+10], W1
	PUSH.D	W2
	MOV	[W14+0], W2
	MOV	[W14+2], W3
	CALL	__Sub_FP
	POP.D	W2
	MOV	[W14+4], W2
	MOV	[W14+6], W3
	MOV	W0, [W14+4]
	MOV	W1, [W14+6]
	MOV	#0, W0
	MOV	#16384, W1
	CALL	__Mul_FP
	MOV	W0, [W14+0]
	MOV	W1, [W14+2]
	MOV	_yf0, W0
	MOV	_yf0+2, W1
	PUSH.D	W2
	MOV	[W14+0], W2
	MOV	[W14+2], W3
	CALL	__Sub_FP
	POP.D	W2
	MOV	_yf2, W2
	MOV	_yf2+2, W3
	CALL	__AddSub_FP
	MOV	#0, W2
	MOV	#16384, W3
	CALL	__Mul_FP
	MOV	W0, [W14+0]
	MOV	W1, [W14+2]
	MOV	[W14+4], W0
	MOV	[W14+6], W1
	PUSH.D	W2
	MOV	[W14+0], W2
	MOV	[W14+2], W3
	CALL	__Div_FP
	POP.D	W2
	MOV	W0, _nx
	MOV	W1, _nx+2
;ADC_DAC.c,196 :: 		dx = nx*dix*tx;
	MOV	#0, W2
	MOV	#16768, W3
	CALL	__Mul_FP
	MOV	#0, W2
	MOV	#16544, W3
	CALL	__Mul_FP
	MOV	W0, _dx
	MOV	W1, _dx+2
;ADC_DAC.c,197 :: 		tmax = i1*tx;
	MOV	_i1, W0
	CLR	W1
	CALL	__Long2Float
	MOV	#0, W2
	MOV	#16544, W3
	CALL	__Mul_FP
	MOV	W0, _tmax
	MOV	W1, _tmax+2
;ADC_DAC.c,199 :: 		T2 = tmax+dx;
	MOV	_dx, W2
	MOV	_dx+2, W3
	CALL	__AddSub_FP
	MOV	W0, _T2
	MOV	W1, _T2+2
;ADC_DAC.c,201 :: 		}
L_Pulse12:
;ADC_DAC.c,203 :: 		}
L_end_Pulse:
	ULNK
	RETURN
; end of _Pulse

_Calcular:
	LNK	#4

;ADC_DAC.c,206 :: 		void Calcular(){
;ADC_DAC.c,208 :: 		conts = 0;                               //Limpia el contador de secuencias
	PUSH	W10
	PUSH	W11
	PUSH	W12
	PUSH	W13
	MOV	#lo_addr(_conts), W1
	CLR	W0
	MOV.B	W0, [W1]
;ADC_DAC.c,209 :: 		T2sum = 0.0;
	CLR	W0
	CLR	W1
	MOV	W0, _T2sum
	MOV	W1, _T2sum+2
;ADC_DAC.c,210 :: 		T2prom = 0.0;
	CLR	W0
	CLR	W1
	MOV	W0, _T2prom
	MOV	W1, _T2prom+2
;ADC_DAC.c,211 :: 		T2a = 0.0;
	CLR	W0
	CLR	W1
	MOV	W0, _T2a
	MOV	W1, _T2a+2
;ADC_DAC.c,212 :: 		T2b = 0.0;
	CLR	W0
	CLR	W1
	MOV	W0, _T2b
	MOV	W1, _T2b+2
;ADC_DAC.c,214 :: 		while (conts<Nsm){
L_Calcular15:
	MOV	#lo_addr(_conts), W0
	MOV.B	[W0], W0
	CP.B	W0, #3
	BRA LT	L__Calcular109
	GOTO	L_Calcular16
L__Calcular109:
;ADC_DAC.c,215 :: 		Pulse();                           //Inicia una secuencia de medicion
	CALL	_Pulse
;ADC_DAC.c,216 :: 		T2b = T2;
	MOV	_T2, W0
	MOV	_T2+2, W1
	MOV	W0, _T2b
	MOV	W1, _T2b+2
;ADC_DAC.c,217 :: 		if ((T2b-T2a)<=T2umb){             //Verifica si el T2 actual esta dentro de un umbral pre-establecido
	MOV	_T2, W0
	MOV	_T2+2, W1
	MOV	_T2a, W2
	MOV	_T2a+2, W3
	CALL	__Sub_FP
	MOV	#0, W2
	MOV	#16672, W3
	CALL	__Compare_Le_Fp
	CP0	W0
	CLR.B	W0
	BRA GT	L__Calcular110
	INC.B	W0
L__Calcular110:
	CP0.B	W0
	BRA NZ	L__Calcular111
	GOTO	L_Calcular17
L__Calcular111:
;ADC_DAC.c,218 :: 		T2sum = T2sum + T2b;            //Acumula la sumatoria de valores de T2 calculados por la funcion Pulse()
	MOV	_T2sum, W2
	MOV	_T2sum+2, W3
	MOV	_T2b, W0
	MOV	_T2b+2, W1
	CALL	__AddSub_FP
	MOV	W0, _T2sum
	MOV	W1, _T2sum+2
;ADC_DAC.c,219 :: 		conts++;                        //Aumenta el contador de secuencias
	MOV.B	#1, W1
	MOV	#lo_addr(_conts), W0
	ADD.B	W1, [W0], [W0]
;ADC_DAC.c,220 :: 		}
L_Calcular17:
;ADC_DAC.c,221 :: 		T2a = T2b;
	MOV	_T2b, W0
	MOV	_T2b+2, W1
	MOV	W0, _T2a
	MOV	W1, _T2a+2
;ADC_DAC.c,222 :: 		}
	GOTO	L_Calcular15
L_Calcular16:
;ADC_DAC.c,224 :: 		T2prom = T2sum/Nsm;
	MOV	#0, W2
	MOV	#16448, W3
	MOV	_T2sum, W0
	MOV	_T2sum+2, W1
	CALL	__Div_FP
	MOV	W0, _T2prom
	MOV	W1, _T2prom+2
;ADC_DAC.c,226 :: 		Velocidad();                             //Calcula la velocidad del sonido
	CALL	_Velocidad
;ADC_DAC.c,229 :: 		TOF = (T1+T2prom-T2adj)/1.0e6;           //Calcula el TOF en seg
	MOV	#57344, W2
	MOV	#17579, W3
	MOV	_T2prom, W0
	MOV	_T2prom+2, W1
	CALL	__AddSub_FP
	MOV	_T2adj, W2
	MOV	_T2adj+2, W3
	CALL	__Sub_FP
	MOV	#9216, W2
	MOV	#18804, W3
	CALL	__Div_FP
	MOV	W0, _TOF
	MOV	W1, _TOF+2
;ADC_DAC.c,230 :: 		Dst = (VSnd*TOF/2.0) * 1000.0;           //Calcula la distancia en mm
	MOV	_VSnd, W2
	MOV	_VSnd+2, W3
	CALL	__Mul_FP
	MOV	#0, W2
	MOV	#16384, W3
	CALL	__Div_FP
	MOV	#0, W2
	MOV	#17530, W3
	CALL	__Mul_FP
	MOV	W0, [W14+0]
	MOV	W1, [W14+2]
	MOV	W0, _Dst
	MOV	W1, _Dst+2
;ADC_DAC.c,231 :: 		FNivel = (Alt-Dst)/1000.0;               //Calcula el Nivel de liquido en metros
	MOV	_Alt, W0
	CLR	W1
	CALL	__Long2Float
	MOV	[W14+0], W2
	MOV	[W14+2], W3
	CALL	__Sub_FP
	MOV	#0, W2
	MOV	#17530, W3
	CALL	__Div_FP
	MOV	W0, _FNivel
	MOV	W1, _FNivel+2
;ADC_DAC.c,232 :: 		FCaudal = 4960440*pow(FNivel,2.5);       //Calcula el Caudal en litros/hora
	MOV	#0, W12
	MOV	#16416, W13
	MOV.D	W0, W10
	CALL	_pow
	MOV	#24944, W2
	MOV	#19095, W3
	CALL	__Mul_FP
	MOV	W0, [W14+0]
	MOV	W1, [W14+2]
	MOV	W0, _FCaudal
	MOV	W1, _FCaudal+2
;ADC_DAC.c,234 :: 		Temperatura = (unsigned int)(DSTemp);    //Tranforma el dato de Temperatura de float a entero sin signo
	MOV	_DSTemp, W0
	MOV	_DSTemp+2, W1
	CALL	__Float2Longint
	MOV	W0, _Temperatura
;ADC_DAC.c,235 :: 		IDst = (unsigned int)(Dst);              //Tranforma el dato de distancia de float a entero sin signo
	MOV	_Dst, W0
	MOV	_Dst+2, W1
	CALL	__Float2Longint
	MOV	W0, _IDst
;ADC_DAC.c,236 :: 		Caudal = (unsigned int)(FCaudal);        //Tranforma el dato de Caudal de float a entero sin signo
	MOV	[W14+0], W0
	MOV	[W14+2], W1
	CALL	__Float2Longint
	MOV	W0, _Caudal
;ADC_DAC.c,237 :: 		IT2prom = (unsigned int)(T2prom);
	MOV	_T2prom, W0
	MOV	_T2prom+2, W1
	CALL	__Float2Longint
	MOV	W0, _IT2prom
;ADC_DAC.c,239 :: 		chIDst = (unsigned char *) & IDst;       //Asocia el valor calculado de Dst al puntero chDst
	MOV	#lo_addr(_IDst), W0
	MOV	W0, _chIDst
;ADC_DAC.c,240 :: 		chTemp = (unsigned char *) & Temperatura;//Asocia el valor calculado de Temperatura al puntero chTemp
	MOV	#lo_addr(_Temperatura), W0
	MOV	W0, _chTemp
;ADC_DAC.c,241 :: 		chCaudal = (unsigned char *) & Caudal;   //Asocia el valor calculado de Temperatura al puntero chTemp
	MOV	#lo_addr(_Caudal), W0
	MOV	W0, _chCaudal
;ADC_DAC.c,242 :: 		chT2prom = (unsigned char *) & IT2prom;
	MOV	#lo_addr(_IT2prom), W0
	MOV	W0, _chT2prom
;ADC_DAC.c,244 :: 		}
L_end_Calcular:
	POP	W13
	POP	W12
	POP	W11
	POP	W10
	ULNK
	RETURN
; end of _Calcular

_Responder:

;ADC_DAC.c,247 :: 		void Responder(unsigned int Reg){
;ADC_DAC.c,249 :: 		if (Reg==0x01){
	CP	W10, #1
	BRA Z	L__Responder113
	GOTO	L_Responder18
L__Responder113:
;ADC_DAC.c,250 :: 		for (ir=4;ir>=3;ir--){
	MOV	#lo_addr(_ir), W1
	MOV.B	#4, W0
	MOV.B	W0, [W1]
L_Responder19:
	MOV	#lo_addr(_ir), W0
	MOV.B	[W0], W0
	CP.B	W0, #3
	BRA GEU	L__Responder114
	GOTO	L_Responder20
L__Responder114:
;ADC_DAC.c,251 :: 		Rspt[ir]=(*chIDst++);             //Rellena los bytes 3 y 4 de la trama de respuesta con el dato de la Distancia calculada
	MOV	#lo_addr(_ir), W0
	ZE	[W0], W1
	MOV	#lo_addr(_Rspt), W0
	ADD	W0, W1, W1
	MOV	_chIDst, W0
	MOV.B	[W0], [W1]
	MOV	#1, W1
	MOV	#lo_addr(_chIDst), W0
	ADD	W1, [W0], [W0]
;ADC_DAC.c,250 :: 		for (ir=4;ir>=3;ir--){
	MOV.B	#1, W1
	MOV	#lo_addr(_ir), W0
	SUBR.B	W1, [W0], [W0]
;ADC_DAC.c,252 :: 		}
	GOTO	L_Responder19
L_Responder20:
;ADC_DAC.c,253 :: 		}
L_Responder18:
;ADC_DAC.c,254 :: 		if (Reg==0x02){
	CP	W10, #2
	BRA Z	L__Responder115
	GOTO	L_Responder22
L__Responder115:
;ADC_DAC.c,255 :: 		for (ir=4;ir>=3;ir--){
	MOV	#lo_addr(_ir), W1
	MOV.B	#4, W0
	MOV.B	W0, [W1]
L_Responder23:
	MOV	#lo_addr(_ir), W0
	MOV.B	[W0], W0
	CP.B	W0, #3
	BRA GEU	L__Responder116
	GOTO	L_Responder24
L__Responder116:
;ADC_DAC.c,256 :: 		Rspt[ir]=(*chCaudal++);           //Rellena los bytes 3 y 4 de la trama de respuesta con el dato del Caudal calculado
	MOV	#lo_addr(_ir), W0
	ZE	[W0], W1
	MOV	#lo_addr(_Rspt), W0
	ADD	W0, W1, W1
	MOV	_chCaudal, W0
	MOV.B	[W0], [W1]
	MOV	#1, W1
	MOV	#lo_addr(_chCaudal), W0
	ADD	W1, [W0], [W0]
;ADC_DAC.c,255 :: 		for (ir=4;ir>=3;ir--){
	MOV.B	#1, W1
	MOV	#lo_addr(_ir), W0
	SUBR.B	W1, [W0], [W0]
;ADC_DAC.c,257 :: 		}
	GOTO	L_Responder23
L_Responder24:
;ADC_DAC.c,258 :: 		}
L_Responder22:
;ADC_DAC.c,259 :: 		if (Reg==0x03){
	CP	W10, #3
	BRA Z	L__Responder117
	GOTO	L_Responder26
L__Responder117:
;ADC_DAC.c,260 :: 		for (ir=4;ir>=3;ir--){
	MOV	#lo_addr(_ir), W1
	MOV.B	#4, W0
	MOV.B	W0, [W1]
L_Responder27:
	MOV	#lo_addr(_ir), W0
	MOV.B	[W0], W0
	CP.B	W0, #3
	BRA GEU	L__Responder118
	GOTO	L_Responder28
L__Responder118:
;ADC_DAC.c,261 :: 		Rspt[ir]=(*chTemp++);             //Rellena los bytes 3 y 4 de la trama de respuesta con el dato de la Temperatura calculada
	MOV	#lo_addr(_ir), W0
	ZE	[W0], W1
	MOV	#lo_addr(_Rspt), W0
	ADD	W0, W1, W1
	MOV	_chTemp, W0
	MOV.B	[W0], [W1]
	MOV	#1, W1
	MOV	#lo_addr(_chTemp), W0
	ADD	W1, [W0], [W0]
;ADC_DAC.c,260 :: 		for (ir=4;ir>=3;ir--){
	MOV.B	#1, W1
	MOV	#lo_addr(_ir), W0
	SUBR.B	W1, [W0], [W0]
;ADC_DAC.c,262 :: 		}
	GOTO	L_Responder27
L_Responder28:
;ADC_DAC.c,263 :: 		}
L_Responder26:
;ADC_DAC.c,264 :: 		if (Reg==0x04){
	CP	W10, #4
	BRA Z	L__Responder119
	GOTO	L_Responder30
L__Responder119:
;ADC_DAC.c,265 :: 		for (ir=4;ir>=3;ir--){
	MOV	#lo_addr(_ir), W1
	MOV.B	#4, W0
	MOV.B	W0, [W1]
L_Responder31:
	MOV	#lo_addr(_ir), W0
	MOV.B	[W0], W0
	CP.B	W0, #3
	BRA GEU	L__Responder120
	GOTO	L_Responder32
L__Responder120:
;ADC_DAC.c,266 :: 		Rspt[ir]=(*chKadj++);             //Rellena los bytes 3 y 4 de la trama de respuesta con el dato del factor de calibracion calculado
	MOV	#lo_addr(_ir), W0
	ZE	[W0], W1
	MOV	#lo_addr(_Rspt), W0
	ADD	W0, W1, W1
	MOV	_chKadj, W0
	MOV.B	[W0], [W1]
	MOV	#1, W1
	MOV	#lo_addr(_chKadj), W0
	ADD	W1, [W0], [W0]
;ADC_DAC.c,265 :: 		for (ir=4;ir>=3;ir--){
	MOV.B	#1, W1
	MOV	#lo_addr(_ir), W0
	SUBR.B	W1, [W0], [W0]
;ADC_DAC.c,267 :: 		}
	GOTO	L_Responder31
L_Responder32:
;ADC_DAC.c,268 :: 		}
L_Responder30:
;ADC_DAC.c,269 :: 		if (Reg==0x05){
	CP	W10, #5
	BRA Z	L__Responder121
	GOTO	L_Responder34
L__Responder121:
;ADC_DAC.c,270 :: 		for (ir=4;ir>=3;ir--){
	MOV	#lo_addr(_ir), W1
	MOV.B	#4, W0
	MOV.B	W0, [W1]
L_Responder35:
	MOV	#lo_addr(_ir), W0
	MOV.B	[W0], W0
	CP.B	W0, #3
	BRA GEU	L__Responder122
	GOTO	L_Responder36
L__Responder122:
;ADC_DAC.c,271 :: 		Rspt[ir]=(*chT2prom++);           //Rellena los bytes 3 y 4 de la trama de respuesta con el dato de T2 calculado
	MOV	#lo_addr(_ir), W0
	ZE	[W0], W1
	MOV	#lo_addr(_Rspt), W0
	ADD	W0, W1, W1
	MOV	_chT2prom, W0
	MOV.B	[W0], [W1]
	MOV	#1, W1
	MOV	#lo_addr(_chT2prom), W0
	ADD	W1, [W0], [W0]
;ADC_DAC.c,270 :: 		for (ir=4;ir>=3;ir--){
	MOV.B	#1, W1
	MOV	#lo_addr(_ir), W0
	SUBR.B	W1, [W0], [W0]
;ADC_DAC.c,272 :: 		}
	GOTO	L_Responder35
L_Responder36:
;ADC_DAC.c,273 :: 		}
L_Responder34:
;ADC_DAC.c,275 :: 		Rspt[2]=Ptcn[2];                         //Rellena el byte 2 con el tipo de funcion de la trama de peticion
	MOV	#lo_addr(_Rspt+2), W1
	MOV	#lo_addr(_Ptcn+2), W0
	MOV.B	[W0], [W1]
;ADC_DAC.c,277 :: 		RB5_bit = 1;                             //Establece el Max485 en modo de escritura
	BSET	RB5_bit, BitPos(RB5_bit+0)
;ADC_DAC.c,278 :: 		for (ir=0;ir<Rsize;ir++){
	MOV	#lo_addr(_ir), W1
	CLR	W0
	MOV.B	W0, [W1]
L_Responder38:
	MOV	#lo_addr(_ir), W0
	MOV.B	[W0], W0
	CP.B	W0, #6
	BRA LTU	L__Responder123
	GOTO	L_Responder39
L__Responder123:
;ADC_DAC.c,279 :: 		UART1_Write(Rspt[ir]);               //Envia la trama de respuesta
	MOV	#lo_addr(_ir), W0
	ZE	[W0], W1
	MOV	#lo_addr(_Rspt), W0
	ADD	W0, W1, W0
	PUSH	W10
	ZE	[W0], W10
	CALL	_UART1_Write
	POP	W10
;ADC_DAC.c,278 :: 		for (ir=0;ir<Rsize;ir++){
	MOV.B	#1, W1
	MOV	#lo_addr(_ir), W0
	ADD.B	W1, [W0], [W0]
;ADC_DAC.c,280 :: 		}
	GOTO	L_Responder38
L_Responder39:
;ADC_DAC.c,281 :: 		while(UART1_Tx_Idle()==0);               //Espera hasta que se haya terminado de enviar todo el dato por UART antes de continuar
L_Responder41:
	CALL	_UART1_Tx_Idle
	CP	W0, #0
	BRA Z	L__Responder124
	GOTO	L_Responder42
L__Responder124:
	GOTO	L_Responder41
L_Responder42:
;ADC_DAC.c,282 :: 		RB5_bit = 0;                             //Establece el Max485 en modo de lectura;
	BCLR	RB5_bit, BitPos(RB5_bit+0)
;ADC_DAC.c,284 :: 		for (ipp=3;ipp<5;ipp++){
	MOV	#lo_addr(_ipp), W1
	MOV.B	#3, W0
	MOV.B	W0, [W1]
L_Responder43:
	MOV	#lo_addr(_ipp), W0
	MOV.B	[W0], W0
	CP.B	W0, #5
	BRA LTU	L__Responder125
	GOTO	L_Responder44
L__Responder125:
;ADC_DAC.c,285 :: 		Rspt[ipp]=0;;                        //Limpia la trama de respuesta
	MOV	#lo_addr(_ipp), W0
	ZE	[W0], W1
	MOV	#lo_addr(_Rspt), W0
	ADD	W0, W1, W1
	CLR	W0
	MOV.B	W0, [W1]
;ADC_DAC.c,284 :: 		for (ipp=3;ipp<5;ipp++){
	MOV.B	#1, W1
	MOV	#lo_addr(_ipp), W0
	ADD.B	W1, [W0], [W0]
;ADC_DAC.c,286 :: 		}
	GOTO	L_Responder43
L_Responder44:
;ADC_DAC.c,288 :: 		}
L_end_Responder:
	RETURN
; end of _Responder

_Calibracion:
	LNK	#8

;ADC_DAC.c,291 :: 		void Calibracion(unsigned int DReal){
;ADC_DAC.c,293 :: 		conts = 0;                               //Limpia el contador de secuencias
	MOV	#lo_addr(_conts), W1
	CLR	W0
	MOV.B	W0, [W1]
;ADC_DAC.c,294 :: 		T2sum = 0.0;
	CLR	W0
	CLR	W1
	MOV	W0, _T2sum
	MOV	W1, _T2sum+2
;ADC_DAC.c,295 :: 		T2prom = 0.0;
	CLR	W0
	CLR	W1
	MOV	W0, _T2prom
	MOV	W1, _T2prom+2
;ADC_DAC.c,296 :: 		T2a = 0.0;
	CLR	W0
	CLR	W1
	MOV	W0, _T2a
	MOV	W1, _T2a+2
;ADC_DAC.c,297 :: 		T2b = 0.0;
	CLR	W0
	CLR	W1
	MOV	W0, _T2b
	MOV	W1, _T2b+2
;ADC_DAC.c,299 :: 		while (conts<Nsm){
L_Calibracion46:
	MOV	#lo_addr(_conts), W0
	MOV.B	[W0], W0
	CP.B	W0, #3
	BRA LT	L__Calibracion127
	GOTO	L_Calibracion47
L__Calibracion127:
;ADC_DAC.c,300 :: 		Pulse();                           //Inicia una secuencia de medicion
	PUSH	W10
	CALL	_Pulse
;ADC_DAC.c,301 :: 		T2b = T2;
	MOV	_T2, W0
	MOV	_T2+2, W1
	MOV	W0, _T2b
	MOV	W1, _T2b+2
;ADC_DAC.c,302 :: 		if ((T2b-T2a)<=T2umb){             //Verifica si el T2 actual esta dentro de un umbral pre-establecido
	MOV	_T2, W0
	MOV	_T2+2, W1
	MOV	_T2a, W2
	MOV	_T2a+2, W3
	CALL	__Sub_FP
	MOV	#0, W2
	MOV	#16672, W3
	CALL	__Compare_Le_Fp
	CP0	W0
	CLR.B	W0
	BRA GT	L__Calibracion128
	INC.B	W0
L__Calibracion128:
	POP	W10
	CP0.B	W0
	BRA NZ	L__Calibracion129
	GOTO	L_Calibracion48
L__Calibracion129:
;ADC_DAC.c,303 :: 		T2sum = T2sum + T2b;            //Acumula la sumatoria de valores de T2 calculados por la funcion Pulse()
	MOV	_T2sum, W2
	MOV	_T2sum+2, W3
	MOV	_T2b, W0
	MOV	_T2b+2, W1
	PUSH	W10
	CALL	__AddSub_FP
	POP	W10
	MOV	W0, _T2sum
	MOV	W1, _T2sum+2
;ADC_DAC.c,304 :: 		conts++;                        //Aumenta el contador de secuencias
	MOV.B	#1, W1
	MOV	#lo_addr(_conts), W0
	ADD.B	W1, [W0], [W0]
;ADC_DAC.c,305 :: 		}
L_Calibracion48:
;ADC_DAC.c,306 :: 		T2a = T2b;
	MOV	_T2b, W0
	MOV	_T2b+2, W1
	MOV	W0, _T2a
	MOV	W1, _T2a+2
;ADC_DAC.c,307 :: 		}
	GOTO	L_Calibracion46
L_Calibracion47:
;ADC_DAC.c,309 :: 		T2prom = T2sum/Nsm;
	PUSH	W10
	MOV	#0, W2
	MOV	#16448, W3
	MOV	_T2sum, W0
	MOV	_T2sum+2, W1
	CALL	__Div_FP
	MOV	W0, _T2prom
	MOV	W1, _T2prom+2
;ADC_DAC.c,310 :: 		Velocidad();                             //Calcula la velocidad del sonido
	CALL	_Velocidad
	POP	W10
;ADC_DAC.c,312 :: 		FDReal = (float)(DReal);
	PUSH	W10
	MOV	W10, W0
	CLR	W1
	CALL	__Long2Float
	MOV	W0, _FDReal
	MOV	W1, _FDReal+2
;ADC_DAC.c,313 :: 		TOF = (2.0*FDReal)/(VSnd*1000.0);        //Calculo del TOF en funcion del valor real de la distancia
	MOV	#0, W2
	MOV	#16384, W3
	CALL	__Mul_FP
	MOV	W0, [W14+4]
	MOV	W1, [W14+6]
	MOV	_VSnd, W0
	MOV	_VSnd+2, W1
	MOV	#0, W2
	MOV	#17530, W3
	CALL	__Mul_FP
	POP	W10
	MOV	W0, [W14+0]
	MOV	W1, [W14+2]
	MOV	[W14+4], W0
	MOV	[W14+6], W1
	PUSH.D	W2
	MOV	[W14+0], W2
	MOV	[W14+2], W3
	PUSH	W10
	CALL	__Div_FP
	POP	W10
	POP.D	W2
	MOV	W0, [W14+0]
	MOV	W1, [W14+2]
	MOV	W0, _TOF
	MOV	W1, _TOF+2
;ADC_DAC.c,314 :: 		T2adj = T1+T2prom-(TOF*1.0e6);           //Calculo del factor de calibracion en us
	MOV	#57344, W2
	MOV	#17579, W3
	MOV	_T2prom, W0
	MOV	_T2prom+2, W1
	PUSH	W10
	CALL	__AddSub_FP
	MOV	[W14+0], W2
	MOV	[W14+2], W3
	MOV	W0, [W14+4]
	MOV	W1, [W14+6]
	MOV	#9216, W0
	MOV	#18804, W1
	CALL	__Mul_FP
	POP	W10
	MOV	W0, [W14+0]
	MOV	W1, [W14+2]
	MOV	[W14+4], W0
	MOV	[W14+6], W1
	PUSH.D	W2
	MOV	[W14+0], W2
	MOV	[W14+2], W3
	PUSH	W10
	CALL	__Sub_FP
	POP	W10
	POP.D	W2
	MOV	W0, _T2adj
	MOV	W1, _T2adj+2
;ADC_DAC.c,316 :: 		Kadj = (unsigned int)(T2adj);            //Tranforma el dato del factor de calibracion de float a entero sin signo
	PUSH	W10
	CALL	__Float2Longint
	MOV	W0, _Kadj
;ADC_DAC.c,317 :: 		chKadj = (unsigned char *) & Kadj;       //Asocia el valor calculado del factor de calibracion al puntero chKadj
	MOV	#lo_addr(_Kadj), W0
	MOV	W0, _chKadj
;ADC_DAC.c,319 :: 		Responder(0x04);                         //Responde el valor calculado
	MOV	#4, W10
	CALL	_Responder
	POP	W10
;ADC_DAC.c,321 :: 		}
L_end_Calibracion:
	ULNK
	RETURN
; end of _Calibracion

_UART1Interrupt:
	PUSH	52
	PUSH	RCOUNT
	PUSH	W0
	MOV	#2, W0
	REPEAT	#12
	PUSH	[W0++]

;ADC_DAC.c,325 :: 		void UART1Interrupt() iv IVT_ADDR_U1RXINTERRUPT {
;ADC_DAC.c,327 :: 		Dato = UART1_Read();
	CALL	_UART1_Read
	MOV	#lo_addr(_Dato), W1
	MOV.B	W0, [W1]
;ADC_DAC.c,329 :: 		if ((Dato==Hdr)&&(ip==0)){                    //Verifica que el primer dato en llegar sea el identificador de inicio de trama
	MOV.B	#58, W1
	CP.B	W0, W1
	BRA Z	L__UART1Interrupt131
	GOTO	L__UART1Interrupt92
L__UART1Interrupt131:
	MOV	#lo_addr(_ip), W0
	MOV.B	[W0], W0
	CP.B	W0, #0
	BRA Z	L__UART1Interrupt132
	GOTO	L__UART1Interrupt91
L__UART1Interrupt132:
L__UART1Interrupt90:
;ADC_DAC.c,330 :: 		BanT = 1;                                 //Activa la bandera de trama
	MOV	#lo_addr(_BanT), W1
	MOV.B	#1, W0
	MOV.B	W0, [W1]
;ADC_DAC.c,331 :: 		Ptcn[ip] = Dato;                          //Almacena el Dato en la trama de peticion
	MOV	#lo_addr(_ip), W0
	ZE	[W0], W1
	MOV	#lo_addr(_Ptcn), W0
	ADD	W0, W1, W1
	MOV	#lo_addr(_Dato), W0
	MOV.B	[W0], [W1]
;ADC_DAC.c,329 :: 		if ((Dato==Hdr)&&(ip==0)){                    //Verifica que el primer dato en llegar sea el identificador de inicio de trama
L__UART1Interrupt92:
L__UART1Interrupt91:
;ADC_DAC.c,333 :: 		if ((Dato!=Hdr)&&(ip==0)){                    //Verifica si el primer dato en llegar es diferente al identificador del inicio de trama
	MOV	#lo_addr(_Dato), W0
	MOV.B	[W0], W1
	MOV.B	#58, W0
	CP.B	W1, W0
	BRA NZ	L__UART1Interrupt133
	GOTO	L__UART1Interrupt94
L__UART1Interrupt133:
	MOV	#lo_addr(_ip), W0
	MOV.B	[W0], W0
	CP.B	W0, #0
	BRA Z	L__UART1Interrupt134
	GOTO	L__UART1Interrupt93
L__UART1Interrupt134:
L__UART1Interrupt89:
;ADC_DAC.c,334 :: 		ip=-1;                                    //Si es asi: reduce el subindice en una unidad
	MOV	#lo_addr(_ip), W1
	MOV.B	#255, W0
	MOV.B	W0, [W1]
;ADC_DAC.c,333 :: 		if ((Dato!=Hdr)&&(ip==0)){                    //Verifica si el primer dato en llegar es diferente al identificador del inicio de trama
L__UART1Interrupt94:
L__UART1Interrupt93:
;ADC_DAC.c,336 :: 		if ((BanT==1)&&(ip!=0)){
	MOV	#lo_addr(_BanT), W0
	MOV.B	[W0], W0
	CP.B	W0, #1
	BRA Z	L__UART1Interrupt135
	GOTO	L__UART1Interrupt96
L__UART1Interrupt135:
	MOV	#lo_addr(_ip), W0
	MOV.B	[W0], W0
	CP.B	W0, #0
	BRA NZ	L__UART1Interrupt136
	GOTO	L__UART1Interrupt95
L__UART1Interrupt136:
L__UART1Interrupt88:
;ADC_DAC.c,337 :: 		Ptcn[ip] = Dato;                          //Almacena el resto de datos en la trama de peticion si la bandera de trama esta activada
	MOV	#lo_addr(_ip), W0
	ZE	[W0], W1
	MOV	#lo_addr(_Ptcn), W0
	ADD	W0, W1, W1
	MOV	#lo_addr(_Dato), W0
	MOV.B	[W0], [W1]
;ADC_DAC.c,336 :: 		if ((BanT==1)&&(ip!=0)){
L__UART1Interrupt96:
L__UART1Interrupt95:
;ADC_DAC.c,340 :: 		ip++;                                         //Aumenta el subindice una unidad
	MOV.B	#1, W1
	MOV	#lo_addr(_ip), W0
	ADD.B	W1, [W0], [W0]
;ADC_DAC.c,341 :: 		if (ip==Psize){                               //Verifica que se haya terminado de llenar la trama de datos
	MOV	#lo_addr(_ip), W0
	MOV.B	[W0], W0
	CP.B	W0, #6
	BRA Z	L__UART1Interrupt137
	GOTO	L_UART1Interrupt58
L__UART1Interrupt137:
;ADC_DAC.c,342 :: 		BanP = 1;                                 //Habilita la bandera de lectura de datos
	MOV	#lo_addr(_BanP), W1
	MOV.B	#1, W0
	MOV.B	W0, [W1]
;ADC_DAC.c,343 :: 		BanT = 0;
	MOV	#lo_addr(_BanT), W1
	CLR	W0
	MOV.B	W0, [W1]
;ADC_DAC.c,344 :: 		ip=0;                                     //Limpia el subindice de la trama de peticion para permitir una nueva secuencia de recepcion de datos
	MOV	#lo_addr(_ip), W1
	CLR	W0
	MOV.B	W0, [W1]
;ADC_DAC.c,345 :: 		}
L_UART1Interrupt58:
;ADC_DAC.c,347 :: 		U1RXIF_bit = 0;                               //Limpia la bandera de interrupcion de UARTRX
	BCLR	U1RXIF_bit, BitPos(U1RXIF_bit+0)
;ADC_DAC.c,349 :: 		}
L_end_UART1Interrupt:
	MOV	#26, W0
	REPEAT	#12
	POP	[W0--]
	POP	W0
	POP	RCOUNT
	POP	52
	RETFIE
; end of _UART1Interrupt

_Timer1Interrupt:
	PUSH	52
	PUSH	RCOUNT
	PUSH	W0
	MOV	#2, W0
	REPEAT	#12
	PUSH	[W0++]

;ADC_DAC.c,352 :: 		void Timer1Interrupt() iv IVT_ADDR_T1INTERRUPT{
;ADC_DAC.c,354 :: 		SAMP_bit = 0;                                 //Limpia el bit SAMP para iniciar la conversion del ADC
	BCLR	SAMP_bit, BitPos(SAMP_bit+0)
;ADC_DAC.c,355 :: 		while (!AD1CON1bits.DONE);                    //Espera hasta que se complete la conversion
L_Timer1Interrupt59:
	BTSC	AD1CON1bits, #0
	GOTO	L_Timer1Interrupt60
	GOTO	L_Timer1Interrupt59
L_Timer1Interrupt60:
;ADC_DAC.c,356 :: 		if (i<nm){
	MOV	_i, W1
	MOV	#350, W0
	CP	W1, W0
	BRA LTU	L__Timer1Interrupt139
	GOTO	L_Timer1Interrupt61
L__Timer1Interrupt139:
;ADC_DAC.c,357 :: 		M[i] = ADC1BUF0;                           //Almacena el valor actual de la conversion del ADC en el vector M
	MOV	_i, W0
	SL	W0, #1, W1
	MOV	#lo_addr(_M), W0
	ADD	W0, W1, W1
	MOV	ADC1BUF0, WREG
	MOV	W0, [W1]
;ADC_DAC.c,358 :: 		i++;                                       //Aumenta en 1 el subindice del vector de Muestras
	MOV	#1, W1
	MOV	#lo_addr(_i), W0
	ADD	W1, [W0], [W0]
;ADC_DAC.c,359 :: 		} else {
	GOTO	L_Timer1Interrupt62
L_Timer1Interrupt61:
;ADC_DAC.c,360 :: 		bm = 1;                                    //Cambia el valor de la bandera bm para terminar con el muestreo y dar comienzo al procesamiento de la señal
	MOV	#lo_addr(_bm), W1
	MOV.B	#1, W0
	MOV.B	W0, [W1]
;ADC_DAC.c,361 :: 		T1CON.TON = 0;                             //Apaga el TMR1
	BCLR	T1CON, #15
;ADC_DAC.c,362 :: 		IEC0.T1IE = 0;                             //Desabilita la interrupcion por desborde del TMR1
	BCLR	IEC0, #3
;ADC_DAC.c,363 :: 		}
L_Timer1Interrupt62:
;ADC_DAC.c,364 :: 		T1IF_bit = 0;                                 //Limpia la bandera de interrupcion por desbordamiento del TMR1
	BCLR	T1IF_bit, BitPos(T1IF_bit+0)
;ADC_DAC.c,365 :: 		}
L_end_Timer1Interrupt:
	MOV	#26, W0
	REPEAT	#12
	POP	[W0--]
	POP	W0
	POP	RCOUNT
	POP	52
	RETFIE
; end of _Timer1Interrupt

_Timer2Interrupt:
	PUSH	52
	PUSH	RCOUNT
	PUSH	W0
	MOV	#2, W0
	REPEAT	#12
	PUSH	[W0++]

;ADC_DAC.c,368 :: 		void Timer2Interrupt() iv IVT_ADDR_T2INTERRUPT{
;ADC_DAC.c,369 :: 		if (contp<10){                                //Controla el numero total de pulsos de exitacion del transductor ultrasonico. (
	MOV	_contp, W0
	CP	W0, #10
	BRA LTU	L__Timer2Interrupt141
	GOTO	L_Timer2Interrupt63
L__Timer2Interrupt141:
;ADC_DAC.c,370 :: 		RB2_bit = ~RB2_bit;                      //Conmuta el valor del pin RB14
	BTG	RB2_bit, BitPos(RB2_bit+0)
;ADC_DAC.c,371 :: 		}else {
	GOTO	L_Timer2Interrupt64
L_Timer2Interrupt63:
;ADC_DAC.c,372 :: 		RB2_bit = 0;                            //Pone a cero despues de enviar todos los pulsos de exitacion.
	BCLR	RB2_bit, BitPos(RB2_bit+0)
;ADC_DAC.c,374 :: 		if (contp==110){
	MOV	#110, W1
	MOV	#lo_addr(_contp), W0
	CP	W1, [W0]
	BRA Z	L__Timer2Interrupt142
	GOTO	L_Timer2Interrupt65
L__Timer2Interrupt142:
;ADC_DAC.c,375 :: 		IEC0.T2IE = 0;                       //Desabilita la interrupcion por desborde del TMR2 para no interferir con las interrupciones por desborde de TMR1
	BCLR	IEC0, #7
;ADC_DAC.c,376 :: 		T2CON.TON = 0;                       //Apaga el TMR2
	BCLR	T2CON, #15
;ADC_DAC.c,377 :: 		IEC0.T1IE = 1;                       //Habilita la interrupcion por desborde del TMR1 para dar inicio al muestreo del ADC
	BSET	IEC0, #3
;ADC_DAC.c,378 :: 		TMR1 = 0;                            //Encera el TMR1
	CLR	TMR1
;ADC_DAC.c,379 :: 		T1IF_bit = 0;                        //Limpia la bandera de interrupcion por desbordamiento del TMR1
	BCLR	T1IF_bit, BitPos(T1IF_bit+0)
;ADC_DAC.c,380 :: 		T1CON.TON = 1;                       //Enciende el TMR1
	BSET	T1CON, #15
;ADC_DAC.c,381 :: 		bm=0;
	MOV	#lo_addr(_bm), W1
	CLR	W0
	MOV.B	W0, [W1]
;ADC_DAC.c,382 :: 		}
L_Timer2Interrupt65:
;ADC_DAC.c,384 :: 		}
L_Timer2Interrupt64:
;ADC_DAC.c,385 :: 		contp++;                                      //Aumenta el contador en una unidad.
	MOV	#1, W1
	MOV	#lo_addr(_contp), W0
	ADD	W1, [W0], [W0]
;ADC_DAC.c,386 :: 		T2IF_bit = 0;                                 //Limpia la bandera de interrupcion por desbordamiento del TMR2
	BCLR	T2IF_bit, BitPos(T2IF_bit+0)
;ADC_DAC.c,387 :: 		}
L_end_Timer2Interrupt:
	MOV	#26, W0
	REPEAT	#12
	POP	[W0--]
	POP	W0
	POP	RCOUNT
	POP	52
	RETFIE
; end of _Timer2Interrupt

_Configuracion:

;ADC_DAC.c,391 :: 		void Configuracion(){
;ADC_DAC.c,394 :: 		CLKDIVbits.PLLPRE = 0;                      //PLLPRE<4:0> = 0  ->  N1 = 2    8MHz / 2 = 4MHz
	MOV	#lo_addr(CLKDIVbits), W0
	MOV.B	[W0], W1
	MOV.B	#224, W0
	AND.B	W1, W0, W1
	MOV	#lo_addr(CLKDIVbits), W0
	MOV.B	W1, [W0]
;ADC_DAC.c,395 :: 		PLLFBD = 38;                                //PLLDIV<8:0> = 38 ->  M = 40    4MHz * 40 = 160MHz
	MOV	#38, W0
	MOV	WREG, PLLFBD
;ADC_DAC.c,396 :: 		CLKDIVbits.PLLPOST = 0;                     //PLLPOST<1:0> = 0 ->  N2 = 2    160MHz / 2 = 80MHz
	MOV	#lo_addr(CLKDIVbits), W0
	MOV.B	[W0], W1
	MOV.B	#63, W0
	AND.B	W1, W0, W1
	MOV	#lo_addr(CLKDIVbits), W0
	MOV.B	W1, [W0]
;ADC_DAC.c,399 :: 		AD1PCFGL = 0xFFFD;                          //Configura el puerto AN1 como entrada analogica y todas las demas como digitales
	MOV	#65533, W0
	MOV	WREG, AD1PCFGL
;ADC_DAC.c,400 :: 		TRISA1_bit = 1;                             //Establece el pin RA1 como entrada
	BSET	TRISA1_bit, BitPos(TRISA1_bit+0)
;ADC_DAC.c,401 :: 		TRISB = 0xFF80;                             //TRISB = 11111111 10000000
	MOV	#65408, W0
	MOV	WREG, TRISB
;ADC_DAC.c,404 :: 		AD1CON1.AD12B = 0;                          //Configura el ADC en modo de 10 bits
	BCLR	AD1CON1, #10
;ADC_DAC.c,405 :: 		AD1CON1bits.FORM = 0x00;                    //Formato de la canversion: 00->(0_1023)|01->(-512_511)|02->(0_0.999)|03->(-1_0.999)
	MOV	AD1CON1bits, W1
	MOV	#64767, W0
	AND	W1, W0, W0
	MOV	WREG, AD1CON1bits
;ADC_DAC.c,406 :: 		AD1CON1.SIMSAM = 0;                         //0 -> Muestrea múltiples canales individualmente en secuencia
	BCLR	AD1CON1, #3
;ADC_DAC.c,407 :: 		AD1CON1.ADSIDL = 0;                         //Continua con la operacion del modulo durante el modo desocupado
	BCLR	AD1CON1, #13
;ADC_DAC.c,408 :: 		AD1CON1.ASAM = 1;                           //Muestreo automatico
	BSET	AD1CON1, #2
;ADC_DAC.c,409 :: 		AD1CON1bits.SSRC = 0x00;                    //Conversion manual
	MOV	#lo_addr(AD1CON1bits), W0
	MOV.B	[W0], W1
	MOV.B	#31, W0
	AND.B	W1, W0, W1
	MOV	#lo_addr(AD1CON1bits), W0
	MOV.B	W1, [W0]
;ADC_DAC.c,411 :: 		AD1CON2bits.VCFG = 0;                       //Selecciona AVDD y AVSS como fuentes de voltaje de referencia
	MOV	AD1CON2bits, W1
	MOV	#8191, W0
	AND	W1, W0, W0
	MOV	WREG, AD1CON2bits
;ADC_DAC.c,412 :: 		AD1CON2bits.CHPS = 0;                       //Selecciona unicamente el canal CH0
	MOV	AD1CON2bits, W1
	MOV	#64767, W0
	AND	W1, W0, W0
	MOV	WREG, AD1CON2bits
;ADC_DAC.c,413 :: 		AD1CON2.CSCNA = 0;                          //No escanea las entradas de CH0 durante la Muestra A
	BCLR	AD1CON2, #10
;ADC_DAC.c,414 :: 		AD1CON2.BUFM = 0;                           //Bit de selección del modo de relleno del búfer, 0 -> Siempre comienza a llenar el buffer desde el principio
	BCLR	AD1CON2, #1
;ADC_DAC.c,415 :: 		AD1CON2.ALTS = 0x00;                        //Utiliza siempre la selección de entrada de canal para la muestra A
	BCLR	AD1CON2, #0
;ADC_DAC.c,417 :: 		AD1CON3.ADRC = 0;                           //Selecciona el reloj de conversion del ADC derivado del reloj del sistema
	BCLR	AD1CON3, #15
;ADC_DAC.c,418 :: 		AD1CON3bits.ADCS = 0x02;                    //Configura el periodo del reloj del ADC fijando el valor de los bits ADCS segun la formula: TAD = TCY*(ADCS+1) = 75ns  -> ADCS = 2
	MOV.B	#2, W0
	MOV.B	W0, W1
	MOV	#lo_addr(AD1CON3bits), W0
	XOR.B	W1, [W0], W1
	MOV.B	#255, W0
	AND.B	W1, W0, W1
	MOV	#lo_addr(AD1CON3bits), W0
	XOR.B	W1, [W0], W1
	MOV	#lo_addr(AD1CON3bits), W0
	MOV.B	W1, [W0]
;ADC_DAC.c,419 :: 		AD1CON3bits.SAMC = 0x02;                    //Auto Sample Time bits, 2 -> 2*TAD (minimo periodo de muestreo para 10 bits)
	MOV	#512, W0
	MOV	W0, W1
	MOV	#lo_addr(AD1CON3bits), W0
	XOR	W1, [W0], W1
	MOV	#7936, W0
	AND	W1, W0, W1
	MOV	#lo_addr(AD1CON3bits), W0
	XOR	W1, [W0], W1
	MOV	W1, AD1CON3bits
;ADC_DAC.c,421 :: 		AD1CHS0.CH0NB = 0;                          //Channel 0 negative input is VREF-
	BCLR	AD1CHS0, #15
;ADC_DAC.c,422 :: 		AD1CHS0bits.CH0SB = 0x01;                   //Channel 0 positive input is AN1
	MOV	#256, W0
	MOV	W0, W1
	MOV	#lo_addr(AD1CHS0bits), W0
	XOR	W1, [W0], W1
	MOV	#7936, W0
	AND	W1, W0, W1
	MOV	#lo_addr(AD1CHS0bits), W0
	XOR	W1, [W0], W1
	MOV	W1, AD1CHS0bits
;ADC_DAC.c,423 :: 		AD1CHS0.CH0NA = 0;                          //Channel 0 negative input is VREF-
	BCLR	AD1CHS0, #7
;ADC_DAC.c,424 :: 		AD1CHS0bits.CH0SA = 0x01;                   //Channel 0 positive input is AN1
	MOV.B	#1, W0
	MOV.B	W0, W1
	MOV	#lo_addr(AD1CHS0bits), W0
	XOR.B	W1, [W0], W1
	AND.B	W1, #31, W1
	MOV	#lo_addr(AD1CHS0bits), W0
	XOR.B	W1, [W0], W1
	MOV	#lo_addr(AD1CHS0bits), W0
	MOV.B	W1, [W0]
;ADC_DAC.c,426 :: 		AD1CHS123 = 0;                              //AD1CHS123: ADC1 INPUT CHANNEL 1, 2, 3 SELECT REGISTER
	CLR	AD1CHS123
;ADC_DAC.c,428 :: 		AD1CSSL = 0x00;                             //Se salta todos los puertos ANx para los escaneos de entrada
	CLR	AD1CSSL
;ADC_DAC.c,430 :: 		AD1CON1.ADON = 1;                           //Enciende el modulo ADC
	BSET	AD1CON1, #15
;ADC_DAC.c,433 :: 		T1CON = 0x8000;                             //Habilita el TMR1, selecciona el reloj interno, desabilita el modo Gated Timer, selecciona el preescalador 1:1,
	MOV	#32768, W0
	MOV	WREG, T1CON
;ADC_DAC.c,434 :: 		IEC0.T1IE = 0;                              //Inicializa el programa con la interrupcion por desborde de TMR1 desabilitada para no interferir con la lectura del sensor de temperatura
	BCLR	IEC0, #3
;ADC_DAC.c,435 :: 		T1IF_bit = 0;                               //Limpia la bandera de interrupcion
	BCLR	T1IF_bit, BitPos(T1IF_bit+0)
;ADC_DAC.c,436 :: 		PR1 = 200;                                  //Genera una interrupcion cada 5us (Fs=200KHz)
	MOV	#200, W0
	MOV	WREG, PR1
;ADC_DAC.c,439 :: 		T2CON = 0x8000;                             //Habilita el TMR2, selecciona el reloj interno, desabilita el modo Gated Timer, selecciona el preescalador 1:1,
	MOV	#32768, W0
	MOV	WREG, T2CON
;ADC_DAC.c,440 :: 		IEC0.T2IE = 0;                              //Inicializa el programa con la interrupcion por desborde de TMR2 desabilitada para no interferir con la lectura del sensor de temperatura
	BCLR	IEC0, #7
;ADC_DAC.c,441 :: 		T2IF_bit = 0;                               //Limpia la bandera de interrupcion
	BCLR	T2IF_bit, BitPos(T2IF_bit+0)
;ADC_DAC.c,442 :: 		PR2 = 500;                                  //Genera una interrupcion cada 12.5us
	MOV	#500, W0
	MOV	WREG, PR2
;ADC_DAC.c,445 :: 		RPINR18bits.U1RXR = 0x07;                   //Asisgna Rx a RP12
	MOV.B	#7, W0
	MOV.B	W0, W1
	MOV	#lo_addr(RPINR18bits), W0
	XOR.B	W1, [W0], W1
	AND.B	W1, #31, W1
	MOV	#lo_addr(RPINR18bits), W0
	XOR.B	W1, [W0], W1
	MOV	#lo_addr(RPINR18bits), W0
	MOV.B	W1, [W0]
;ADC_DAC.c,446 :: 		RPOR3bits.RP6R = 0x03;                      //Asigna Tx a RP13
	MOV.B	#3, W0
	MOV.B	W0, W1
	MOV	#lo_addr(RPOR3bits), W0
	XOR.B	W1, [W0], W1
	AND.B	W1, #31, W1
	MOV	#lo_addr(RPOR3bits), W0
	XOR.B	W1, [W0], W1
	MOV	#lo_addr(RPOR3bits), W0
	MOV.B	W1, [W0]
;ADC_DAC.c,447 :: 		IEC0.U1RXIE = 1;                            //Habilita la interrupcion por recepcion de dato por UART
	BSET	IEC0, #11
;ADC_DAC.c,448 :: 		U1RXIF_bit = 0;                             //Limpia la bandera de interrupcion de UARTRX
	BCLR	U1RXIF_bit, BitPos(U1RXIF_bit+0)
;ADC_DAC.c,452 :: 		IPC0bits.T1IP = 0x06;                       //Nivel de prioridad de la interrupcion por desbordamiento del TMR1
	MOV	#24576, W0
	MOV	W0, W1
	MOV	#lo_addr(IPC0bits), W0
	XOR	W1, [W0], W1
	MOV	#28672, W0
	AND	W1, W0, W1
	MOV	#lo_addr(IPC0bits), W0
	XOR	W1, [W0], W1
	MOV	W1, IPC0bits
;ADC_DAC.c,453 :: 		IPC1bits.T2IP = 0x05;                       //Nivel de prioridad de la interrupcion por desbordamiento del TMR2
	MOV	#20480, W0
	MOV	W0, W1
	MOV	#lo_addr(IPC1bits), W0
	XOR	W1, [W0], W1
	MOV	#28672, W0
	AND	W1, W0, W1
	MOV	#lo_addr(IPC1bits), W0
	XOR	W1, [W0], W1
	MOV	W1, IPC1bits
;ADC_DAC.c,454 :: 		IPC2bits.U1RXIP = 0x07;                     //Nivel de prioridad de la interrupcion UARTRX
	MOV	IPC2bits, W1
	MOV	#28672, W0
	IOR	W1, W0, W0
	MOV	WREG, IPC2bits
;ADC_DAC.c,458 :: 		}
L_end_Configuracion:
	RETURN
; end of _Configuracion

_main:
	MOV	#2048, W15
	MOV	#6142, W0
	MOV	WREG, 32
	MOV	#1, W0
	MOV	WREG, 52
	MOV	#4, W0
	IOR	68

;ADC_DAC.c,462 :: 		void main() {
;ADC_DAC.c,464 :: 		Configuracion();
	PUSH	W10
	PUSH	W11
	CALL	_Configuracion
;ADC_DAC.c,466 :: 		UART1_Init(9600);                                        //Inicializa el modulo UART a 9600 bps
	MOV	#9600, W10
	MOV	#0, W11
	CALL	_UART1_Init
;ADC_DAC.c,467 :: 		Delay_ms(100);                                           //Espera hata que el modulo UART se estabilice
	MOV	#21, W8
	MOV	#22619, W7
L_main66:
	DEC	W7
	BRA NZ	L_main66
	DEC	W8
	BRA NZ	L_main66
;ADC_DAC.c,468 :: 		RB5_bit = 0;                                             //Establece el Max485 en modo de lectura
	BCLR	RB5_bit, BitPos(RB5_bit+0)
;ADC_DAC.c,470 :: 		Id = (PORTB&0xFF00)>>8;                                  //Lee el Id de esclavo establecido por el dipswitch
	MOV	PORTB, W1
	MOV	#65280, W0
	AND	W1, W0, W0
	LSR	W0, #8, W2
	MOV	W2, _Id
;ADC_DAC.c,471 :: 		Alt = 300;                                               //Establece la altura de instalacion del sensor en 300 mm
	MOV	#300, W0
	MOV	W0, _Alt
;ADC_DAC.c,472 :: 		T2adj = 477.0;                                           //Factor de calibracion de T2: Con Temp=20 y Vsnd=343.2, reduce la medida 1mm por cada 3 unidades que se aumente a este factor
	MOV	#32768, W0
	MOV	#17390, W1
	MOV	W0, _T2adj
	MOV	W1, _T2adj+2
;ADC_DAC.c,474 :: 		chDP = &DatoPtcn;                                        //Asocia el valor de DatoPtcn al puntero chDP
	MOV	#lo_addr(_DatoPtcn), W0
	MOV	W0, _chDP
;ADC_DAC.c,476 :: 		Rspt[0] = Hdr;                                           //Se rellena el primer byte de la trama de respuesta con el delimitador de inicio de trama
	MOV	#lo_addr(_Rspt), W1
	MOV.B	#58, W0
	MOV.B	W0, [W1]
;ADC_DAC.c,477 :: 		Rspt[1] = Id;                                            //Se rellena el segundo byte de la trama de repuesta con el Id del tipo de sensor
	MOV	#lo_addr(_Rspt+1), W0
	MOV.B	W2, [W0]
;ADC_DAC.c,478 :: 		Rspt[Rsize-1] = End;                                     //Se rellena el ultimo byte de la trama de repuesta con el delimitador de final de trama
	MOV	#lo_addr(_Rspt+5), W1
	MOV.B	#13, W0
	MOV.B	W0, [W1]
;ADC_DAC.c,480 :: 		while(1){
L_main68:
;ADC_DAC.c,482 :: 		Banp=1;
	MOV	#lo_addr(_BanP), W1
	MOV.B	#1, W0
	MOV.B	W0, [W1]
;ADC_DAC.c,483 :: 		Ptcn[0]=Hdr;
	MOV	#lo_addr(_Ptcn), W1
	MOV.B	#58, W0
	MOV.B	W0, [W1]
;ADC_DAC.c,484 :: 		Ptcn[1]=Id;
	MOV	#lo_addr(_Ptcn+1), W1
	MOV	_Id, W0
	MOV.B	W0, [W1]
;ADC_DAC.c,485 :: 		Ptcn[2]=0x01;
	MOV	#lo_addr(_Ptcn+2), W1
	MOV.B	#1, W0
	MOV.B	W0, [W1]
;ADC_DAC.c,486 :: 		Ptcn[3]=0x00;
	MOV	#lo_addr(_Ptcn+3), W1
	CLR	W0
	MOV.B	W0, [W1]
;ADC_DAC.c,487 :: 		Ptcn[4]=0x00;
	MOV	#lo_addr(_Ptcn+4), W1
	CLR	W0
	MOV.B	W0, [W1]
;ADC_DAC.c,488 :: 		Ptcn[5]=End;
	MOV	#lo_addr(_Ptcn+5), W1
	MOV.B	#13, W0
	MOV.B	W0, [W1]
;ADC_DAC.c,491 :: 		if ((Ptcn[1]==Id)&&(Ptcn[Psize-1]==End)){    //Verifica el identificador de esclavo y el byte de final de trama
	MOV	#lo_addr(_Ptcn+1), W0
	ZE	[W0], W1
	MOV	#lo_addr(_Id), W0
	CP	W1, [W0]
	BRA Z	L__main145
	GOTO	L__main99
L__main145:
	MOV	#lo_addr(_Ptcn+5), W0
	MOV.B	[W0], W0
	CP.B	W0, #13
	BRA Z	L__main146
	GOTO	L__main98
L__main146:
L__main97:
;ADC_DAC.c,493 :: 		Fcn = Ptcn[2];                            //Almacena el tipo de funcion requerida
	MOV	#lo_addr(_Fcn), W1
	MOV	#lo_addr(_Ptcn+2), W0
	MOV.B	[W0], [W1]
;ADC_DAC.c,495 :: 		if (Fcn==0x01){                           //01: Lee el registro principal (Distancia)
	MOV	#lo_addr(_Ptcn+2), W0
	MOV.B	[W0], W0
	CP.B	W0, #1
	BRA Z	L__main147
	GOTO	L_main74
L__main147:
;ADC_DAC.c,496 :: 		Calcular();                            //Realiza una secuencia de calculo
	CALL	_Calcular
;ADC_DAC.c,497 :: 		Responder(0x01);                       //Envia la trama de repuesta con el valor del registro 0x01
	MOV	#1, W10
	CALL	_Responder
;ADC_DAC.c,498 :: 		}
L_main74:
;ADC_DAC.c,499 :: 		if (Fcn==0x02){                           //02: Lee el registro especicfico (01:Distancia, 02:Caudal, 03:Temperatura)
	MOV	#lo_addr(_Fcn), W0
	MOV.B	[W0], W0
	CP.B	W0, #2
	BRA Z	L__main148
	GOTO	L_main75
L__main148:
;ADC_DAC.c,500 :: 		Calcular();                            //Realiza una secuencia de calculo
	CALL	_Calcular
;ADC_DAC.c,501 :: 		*chDP = Ptcn[4];                       //Almacena el byte 4 de la trama de peticion en el LSB de la variable DatoPtcn
	MOV	#lo_addr(_Ptcn+4), W1
	MOV	_chDP, W0
	MOV.B	[W1], [W0]
;ADC_DAC.c,502 :: 		*(chDP+1) = Ptcn[3];                   //Almacena el byte 3 de la trama de peticion en el MSB de la variable DatoPtcn
	MOV	_chDP, W0
	ADD	W0, #1, W1
	MOV	#lo_addr(_Ptcn+3), W0
	MOV.B	[W0], [W1]
;ADC_DAC.c,503 :: 		Responder(DatoPtcn);                   //Envia la trama de repuesta con el valor del registro requerido
	MOV	_DatoPtcn, W10
	CALL	_Responder
;ADC_DAC.c,504 :: 		}
L_main75:
;ADC_DAC.c,505 :: 		if (Fcn==0x03){                           //03: Establece la altura de instalacion del sensor
	MOV	#lo_addr(_Fcn), W0
	MOV.B	[W0], W0
	CP.B	W0, #3
	BRA Z	L__main149
	GOTO	L_main76
L__main149:
;ADC_DAC.c,506 :: 		*chDP = Ptcn[4];                       //Almacena el byte 4 de la trama de peticion en el LSB de la variable DatoPtcn
	MOV	#lo_addr(_Ptcn+4), W1
	MOV	_chDP, W0
	MOV.B	[W1], [W0]
;ADC_DAC.c,507 :: 		*(chDP+1) = Ptcn[3];                   //Almacena el byte 3 de la trama de peticion en el MSB de la variable DatoPtcn
	MOV	_chDP, W0
	ADD	W0, #1, W1
	MOV	#lo_addr(_Ptcn+3), W0
	MOV.B	[W0], [W1]
;ADC_DAC.c,508 :: 		Alt = DatoPtcn;
	MOV	_DatoPtcn, W0
	MOV	W0, _Alt
;ADC_DAC.c,509 :: 		}
L_main76:
;ADC_DAC.c,510 :: 		if (Fcn==0x04){                           //04: Calibra el sensor en funcion del dato de la distancia real del sensor a la superficie del liquido
	MOV	#lo_addr(_Fcn), W0
	MOV.B	[W0], W0
	CP.B	W0, #4
	BRA Z	L__main150
	GOTO	L_main77
L__main150:
;ADC_DAC.c,511 :: 		*chDP = Ptcn[4];                       //Almacena el byte 4 de la trama de peticion en el LSB de la variable DatoPtcn
	MOV	#lo_addr(_Ptcn+4), W1
	MOV	_chDP, W0
	MOV.B	[W1], [W0]
;ADC_DAC.c,512 :: 		*(chDP+1) = Ptcn[3];                   //Almacena el byte 3 de la trama de peticion en el MSB de la variable DatoPtcn
	MOV	_chDP, W0
	ADD	W0, #1, W1
	MOV	#lo_addr(_Ptcn+3), W0
	MOV.B	[W0], [W1]
;ADC_DAC.c,513 :: 		Calibracion(DatoPtcn);                 //Realiza un proceso de calibracion para calcular el valor de la variable T2adj
	MOV	_DatoPtcn, W10
	CALL	_Calibracion
;ADC_DAC.c,514 :: 		}
L_main77:
;ADC_DAC.c,516 :: 		DatoPtcn = 0;                             //Limpia la variable
	CLR	W0
	MOV	W0, _DatoPtcn
;ADC_DAC.c,517 :: 		for (ipp=0;ipp<Psize;ipp++){
	MOV	#lo_addr(_ipp), W1
	CLR	W0
	MOV.B	W0, [W1]
L_main78:
	MOV	#lo_addr(_ipp), W0
	MOV.B	[W0], W0
	CP.B	W0, #6
	BRA LTU	L__main151
	GOTO	L_main79
L__main151:
;ADC_DAC.c,518 :: 		Ptcn[ipp]=0;                          //Limpia la trama de peticion
	MOV	#lo_addr(_ipp), W0
	ZE	[W0], W1
	MOV	#lo_addr(_Ptcn), W0
	ADD	W0, W1, W1
	CLR	W0
	MOV.B	W0, [W1]
;ADC_DAC.c,517 :: 		for (ipp=0;ipp<Psize;ipp++){
	MOV.B	#1, W1
	MOV	#lo_addr(_ipp), W0
	ADD.B	W1, [W0], [W0]
;ADC_DAC.c,519 :: 		}
	GOTO	L_main78
L_main79:
;ADC_DAC.c,520 :: 		BanP = 0;                                 //Limpia la bandera de lectura de datos
	MOV	#lo_addr(_BanP), W1
	CLR	W0
	MOV.B	W0, [W1]
;ADC_DAC.c,522 :: 		}else{
	GOTO	L_main81
;ADC_DAC.c,491 :: 		if ((Ptcn[1]==Id)&&(Ptcn[Psize-1]==End)){    //Verifica el identificador de esclavo y el byte de final de trama
L__main99:
L__main98:
;ADC_DAC.c,523 :: 		for (ipp=0;ipp<Psize;ipp++){
	MOV	#lo_addr(_ipp), W1
	CLR	W0
	MOV.B	W0, [W1]
L_main82:
	MOV	#lo_addr(_ipp), W0
	MOV.B	[W0], W0
	CP.B	W0, #6
	BRA LTU	L__main152
	GOTO	L_main83
L__main152:
;ADC_DAC.c,524 :: 		Ptcn[ipp]=0;                       //Limpia la trama de peticion
	MOV	#lo_addr(_ipp), W0
	ZE	[W0], W1
	MOV	#lo_addr(_Ptcn), W0
	ADD	W0, W1, W1
	CLR	W0
	MOV.B	W0, [W1]
;ADC_DAC.c,523 :: 		for (ipp=0;ipp<Psize;ipp++){
	MOV.B	#1, W1
	MOV	#lo_addr(_ipp), W0
	ADD.B	W1, [W0], [W0]
;ADC_DAC.c,525 :: 		}
	GOTO	L_main82
L_main83:
;ADC_DAC.c,526 :: 		BanP = 0;                              //Limpia la bandera de lectura de datos
	MOV	#lo_addr(_BanP), W1
	CLR	W0
	MOV.B	W0, [W1]
;ADC_DAC.c,527 :: 		}
L_main81:
;ADC_DAC.c,531 :: 		Delay_ms(10);
	MOV	#3, W8
	MOV	#2261, W7
L_main85:
	DEC	W7
	BRA NZ	L_main85
	DEC	W8
	BRA NZ	L_main85
;ADC_DAC.c,533 :: 		}
	GOTO	L_main68
;ADC_DAC.c,535 :: 		}
L_end_main:
	POP	W11
	POP	W10
L__main_end_loop:
	BRA	L__main_end_loop
; end of _main
