
_interrupt:

;Splitter.c,47 :: 		void interrupt(void){
;Splitter.c,49 :: 		if(PIR1.F5==1){                                   //Verifica la bandera de interrupcion del Uart1
	BTFSS       PIR1+0, 5 
	GOTO        L_interrupt0
;Splitter.c,50 :: 		Rspt[ir] = UART1_Read();                     //Almacena los datos de entrada byte a byte en el buffer de peticion
	MOVLW       _Rspt+0
	MOVWF       FLOC__interrupt+0 
	MOVLW       hi_addr(_Rspt+0)
	MOVWF       FLOC__interrupt+1 
	MOVF        _ir+0, 0 
	ADDWF       FLOC__interrupt+0, 1 
	MOVLW       0
	BTFSC       _ir+0, 7 
	MOVLW       255
	ADDWFC      FLOC__interrupt+1, 1 
	CALL        _UART1_Read+0, 0
	MOVFF       FLOC__interrupt+0, FSR1
	MOVFF       FLOC__interrupt+1, FSR1H
	MOVF        R0, 0 
	MOVWF       POSTINC1+0 
;Splitter.c,51 :: 		ir++;
	INCF        _ir+0, 1 
;Splitter.c,52 :: 		if (ir==Rsize){                              //Verifica que se haya terminado de llenar la trama de datos
	MOVF        _ir+0, 0 
	XORLW       6
	BTFSS       STATUS+0, 2 
	GOTO        L_interrupt1
;Splitter.c,53 :: 		BanP = 1;                                 //Habilita la bandera de lectura de datos
	MOVLW       1
	MOVWF       _BanP+0 
;Splitter.c,54 :: 		}
L_interrupt1:
;Splitter.c,55 :: 		PIR1.F5 = 0;                                 //Limpia la bandera de interrupcion
	BCF         PIR1+0, 5 
;Splitter.c,56 :: 		}
L_interrupt0:
;Splitter.c,58 :: 		}
L_end_interrupt:
L__interrupt8:
	RETFIE      1
; end of _interrupt

_Configuracion:

;Splitter.c,61 :: 		void Configuracion(){
;Splitter.c,63 :: 		ANSELA = 0;                                       //Configura el PORTA como digital
	CLRF        ANSELA+0 
;Splitter.c,64 :: 		ANSELB = 0;                                       //Configura el PORTB como digital
	CLRF        ANSELB+0 
;Splitter.c,66 :: 		TRISC5_bit = 0;                                   //Configura el pin C5 como salida
	BCF         TRISC5_bit+0, BitPos(TRISC5_bit+0) 
;Splitter.c,67 :: 		TRISA1_bit = 0;
	BCF         TRISA1_bit+0, BitPos(TRISA1_bit+0) 
;Splitter.c,69 :: 		GIE_bit = 1;                                      //Habilita las interrupciones globales
	BSF         GIE_bit+0, BitPos(GIE_bit+0) 
;Splitter.c,70 :: 		PEIE_bit = 1;                                     //Habilita las interrupciones perifericas
	BSF         PEIE_bit+0, BitPos(PEIE_bit+0) 
;Splitter.c,71 :: 		RC1IE_bit = 1;                                    //Habilita la interrupcion en UART1 receive
	BSF         RC1IE_bit+0, BitPos(RC1IE_bit+0) 
;Splitter.c,72 :: 		TX1IE_bit = 0;                                    //Desabilita la interrupcion en UART1 transmit
	BCF         TX1IE_bit+0, BitPos(TX1IE_bit+0) 
;Splitter.c,74 :: 		UART1_Init(9600);                                 //Inicializa el UART a 9600 bps
	BSF         BAUDCON+0, 3, 0
	CLRF        SPBRGH+0 
	MOVLW       207
	MOVWF       SPBRG+0 
	BSF         TXSTA+0, 2, 0
	CALL        _UART1_Init+0, 0
;Splitter.c,75 :: 		Delay_ms(100);                                    //Espera para que el modulo UART se estabilice
	MOVLW       2
	MOVWF       R11, 0
	MOVLW       4
	MOVWF       R12, 0
	MOVLW       186
	MOVWF       R13, 0
L_Configuracion2:
	DECFSZ      R13, 1, 1
	BRA         L_Configuracion2
	DECFSZ      R12, 1, 1
	BRA         L_Configuracion2
	DECFSZ      R11, 1, 1
	BRA         L_Configuracion2
	NOP
;Splitter.c,77 :: 		Lcd_Init();                                       // Initialize LCD
	CALL        _Lcd_Init+0, 0
;Splitter.c,78 :: 		Lcd_Cmd(_LCD_CLEAR);                              // Clear display
	MOVLW       1
	MOVWF       FARG_Lcd_Cmd_out_char+0 
	CALL        _Lcd_Cmd+0, 0
;Splitter.c,79 :: 		Lcd_Cmd(_LCD_CURSOR_OFF);                         // Cursor off
	MOVLW       12
	MOVWF       FARG_Lcd_Cmd_out_char+0 
	CALL        _Lcd_Cmd+0, 0
;Splitter.c,80 :: 		}
L_end_Configuracion:
	RETURN      0
; end of _Configuracion

_main:

;Splitter.c,82 :: 		void main() {
;Splitter.c,84 :: 		Configuracion();
	CALL        _Configuracion+0, 0
;Splitter.c,86 :: 		Lcd_Out(1, 1, "Hello!");
	MOVLW       1
	MOVWF       FARG_Lcd_Out_row+0 
	MOVLW       1
	MOVWF       FARG_Lcd_Out_column+0 
	MOVLW       ?lstr1_Splitter+0
	MOVWF       FARG_Lcd_Out_text+0 
	MOVLW       hi_addr(?lstr1_Splitter+0)
	MOVWF       FARG_Lcd_Out_text+1 
	CALL        _Lcd_Out+0, 0
;Splitter.c,87 :: 		delay_ms(1);
	MOVLW       3
	MOVWF       R12, 0
	MOVLW       151
	MOVWF       R13, 0
L_main3:
	DECFSZ      R13, 1, 1
	BRA         L_main3
	DECFSZ      R12, 1, 1
	BRA         L_main3
	NOP
	NOP
;Splitter.c,88 :: 		ptrTT2 = &TT2;
	MOVLW       _TT2+0
	MOVWF       _ptrTT2+0 
	MOVLW       hi_addr(_TT2+0)
	MOVWF       _ptrTT2+1 
;Splitter.c,90 :: 		Ptcn[0]=Hdr;
	MOVLW       238
	MOVWF       _Ptcn+0 
;Splitter.c,91 :: 		Ptcn[1]=Tp;
	MOVF        _TP+0, 0 
	MOVWF       _Ptcn+1 
;Splitter.c,92 :: 		Ptcn[2]=Id;
	MOVF        _Id+0, 0 
	MOVWF       _Ptcn+2 
;Splitter.c,93 :: 		Ptcn[3]=End;
	MOVLW       255
	MOVWF       _Ptcn+3 
;Splitter.c,95 :: 		Bb=0;
	CLRF        _Bb+0 
;Splitter.c,96 :: 		T2=0;
	CLRF        _T2+0 
	CLRF        _T2+1 
;Splitter.c,98 :: 		while (1){
L_main4:
;Splitter.c,100 :: 		T2 = 265;
	MOVLW       9
	MOVWF       _T2+0 
	MOVLW       1
	MOVWF       _T2+1 
;Splitter.c,101 :: 		IntToStr(T2,txt1);
	MOVLW       9
	MOVWF       FARG_IntToStr_input+0 
	MOVLW       1
	MOVWF       FARG_IntToStr_input+1 
	MOVLW       _txt1+0
	MOVWF       FARG_IntToStr_output+0 
	MOVLW       hi_addr(_txt1+0)
	MOVWF       FARG_IntToStr_output+1 
	CALL        _IntToStr+0, 0
;Splitter.c,103 :: 		Lcd_Out(1, 1, "T2: ");
	MOVLW       1
	MOVWF       FARG_Lcd_Out_row+0 
	MOVLW       1
	MOVWF       FARG_Lcd_Out_column+0 
	MOVLW       ?lstr2_Splitter+0
	MOVWF       FARG_Lcd_Out_text+0 
	MOVLW       hi_addr(?lstr2_Splitter+0)
	MOVWF       FARG_Lcd_Out_text+1 
	CALL        _Lcd_Out+0, 0
;Splitter.c,104 :: 		Lcd_Out(2,1,txt1);
	MOVLW       2
	MOVWF       FARG_Lcd_Out_row+0 
	MOVLW       1
	MOVWF       FARG_Lcd_Out_column+0 
	MOVLW       _txt1+0
	MOVWF       FARG_Lcd_Out_text+0 
	MOVLW       hi_addr(_txt1+0)
	MOVWF       FARG_Lcd_Out_text+1 
	CALL        _Lcd_Out+0, 0
;Splitter.c,106 :: 		RA1_bit = ~RA1_bit;
	BTG         RA1_bit+0, BitPos(RA1_bit+0) 
;Splitter.c,108 :: 		Delay_ms(20);
	MOVLW       52
	MOVWF       R12, 0
	MOVLW       241
	MOVWF       R13, 0
L_main6:
	DECFSZ      R13, 1, 1
	BRA         L_main6
	DECFSZ      R12, 1, 1
	BRA         L_main6
	NOP
	NOP
;Splitter.c,110 :: 		}
	GOTO        L_main4
;Splitter.c,111 :: 		}
L_end_main:
	GOTO        $+0
; end of _main
